ARM GAS  C:\Users\43479\AppData\Local\Temp\ccmDuM5D.s 			page 1


   1              		.syntax unified
   2              		.cpu cortex-m4
   3              		.eabi_attribute 27, 1
   4              		.fpu fpv4-sp-d16
   5              		.eabi_attribute 20, 1
   6              		.eabi_attribute 21, 1
   7              		.eabi_attribute 23, 3
   8              		.eabi_attribute 24, 1
   9              		.eabi_attribute 25, 1
  10              		.eabi_attribute 26, 1
  11              		.eabi_attribute 30, 1
  12              		.eabi_attribute 34, 1
  13              		.eabi_attribute 18, 4
  14              		.thumb
  15              		.syntax unified
  16              		.file	"cyfitter_amux.c"
  17              		.text
  18              	.Ltext0:
  19              		.cfi_sections	.debug_frame
  20              		.section	.text.AMux_2_Set,"ax",%progbits
  21              		.align	2
  22              		.global	AMux_2_Set
  23              		.thumb
  24              		.thumb_func
  25              		.type	AMux_2_Set, %function
  26              	AMux_2_Set:
  27              	.LFB128:
  28              		.file 1 "Generated_Source\\PSoC6\\cyfitter_amux.c"
   1:Generated_Source\PSoC6/cyfitter_amux.c **** /*******************************************************************************
   2:Generated_Source\PSoC6/cyfitter_amux.c **** * File Name: cyfitter_amux.c
   3:Generated_Source\PSoC6/cyfitter_amux.c **** * 
   4:Generated_Source\PSoC6/cyfitter_amux.c **** * PSoC Creator  4.4
   5:Generated_Source\PSoC6/cyfitter_amux.c **** *
   6:Generated_Source\PSoC6/cyfitter_amux.c **** * Description:
   7:Generated_Source\PSoC6/cyfitter_amux.c **** * APIs for analog mux channel switching
   8:Generated_Source\PSoC6/cyfitter_amux.c **** * This file is automatically generated by PSoC Creator.
   9:Generated_Source\PSoC6/cyfitter_amux.c **** *
  10:Generated_Source\PSoC6/cyfitter_amux.c **** ********************************************************************************
  11:Generated_Source\PSoC6/cyfitter_amux.c **** * Copyright (c) 2007-2020 Cypress Semiconductor.  All rights reserved.
  12:Generated_Source\PSoC6/cyfitter_amux.c **** * You may use this file only in accordance with the license, terms, conditions, 
  13:Generated_Source\PSoC6/cyfitter_amux.c **** * disclaimers, and limitations in the end user license agreement accompanying 
  14:Generated_Source\PSoC6/cyfitter_amux.c **** * the software package with which this file was provided.
  15:Generated_Source\PSoC6/cyfitter_amux.c **** ********************************************************************************/
  16:Generated_Source\PSoC6/cyfitter_amux.c **** 
  17:Generated_Source\PSoC6/cyfitter_amux.c **** #include "cyfitter_cfg.h"
  18:Generated_Source\PSoC6/cyfitter_amux.c **** #include "cydevice_trm.h"
  19:Generated_Source\PSoC6/cyfitter_amux.c **** #include <string.h>
  20:Generated_Source\PSoC6/cyfitter_amux.c **** 
  21:Generated_Source\PSoC6/cyfitter_amux.c **** #if defined(__GNUC__) || defined(__ARMCC_VERSION)
  22:Generated_Source\PSoC6/cyfitter_amux.c ****     #define CYPACKED 
  23:Generated_Source\PSoC6/cyfitter_amux.c ****     #define CYPACKED_ATTR __attribute__ ((packed))
  24:Generated_Source\PSoC6/cyfitter_amux.c ****     #define CYALIGNED __attribute__ ((aligned))
  25:Generated_Source\PSoC6/cyfitter_amux.c ****     #define CY_CFG_UNUSED __attribute__ ((unused))
  26:Generated_Source\PSoC6/cyfitter_amux.c ****     #ifndef CY_CFG_SECTION
  27:Generated_Source\PSoC6/cyfitter_amux.c ****         #define CY_CFG_SECTION __attribute__ ((section(".psocinit")))
  28:Generated_Source\PSoC6/cyfitter_amux.c ****     #endif
  29:Generated_Source\PSoC6/cyfitter_amux.c ****     
ARM GAS  C:\Users\43479\AppData\Local\Temp\ccmDuM5D.s 			page 2


  30:Generated_Source\PSoC6/cyfitter_amux.c ****     #if defined(__ARMCC_VERSION)
  31:Generated_Source\PSoC6/cyfitter_amux.c ****         #define CY_CFG_MEMORY_BARRIER() __memory_changed()
  32:Generated_Source\PSoC6/cyfitter_amux.c ****     #else
  33:Generated_Source\PSoC6/cyfitter_amux.c ****         #define CY_CFG_MEMORY_BARRIER() __sync_synchronize()
  34:Generated_Source\PSoC6/cyfitter_amux.c ****     #endif
  35:Generated_Source\PSoC6/cyfitter_amux.c ****     
  36:Generated_Source\PSoC6/cyfitter_amux.c **** #elif defined(__ICCARM__)
  37:Generated_Source\PSoC6/cyfitter_amux.c ****     #include <intrinsics.h>
  38:Generated_Source\PSoC6/cyfitter_amux.c **** 
  39:Generated_Source\PSoC6/cyfitter_amux.c ****     #define CYPACKED __packed
  40:Generated_Source\PSoC6/cyfitter_amux.c ****     #define CYPACKED_ATTR 
  41:Generated_Source\PSoC6/cyfitter_amux.c ****     #define CYALIGNED _Pragma("data_alignment=4")
  42:Generated_Source\PSoC6/cyfitter_amux.c ****     #define CY_CFG_UNUSED _Pragma("diag_suppress=Pe177")
  43:Generated_Source\PSoC6/cyfitter_amux.c ****     #define CY_CFG_SECTION _Pragma("location=\".psocinit\"")
  44:Generated_Source\PSoC6/cyfitter_amux.c ****     
  45:Generated_Source\PSoC6/cyfitter_amux.c ****     #define CY_CFG_MEMORY_BARRIER() __DMB()
  46:Generated_Source\PSoC6/cyfitter_amux.c ****     
  47:Generated_Source\PSoC6/cyfitter_amux.c **** #else
  48:Generated_Source\PSoC6/cyfitter_amux.c ****     #error Unsupported toolchain
  49:Generated_Source\PSoC6/cyfitter_amux.c **** #endif
  50:Generated_Source\PSoC6/cyfitter_amux.c **** 
  51:Generated_Source\PSoC6/cyfitter_amux.c **** #ifndef CYCODE
  52:Generated_Source\PSoC6/cyfitter_amux.c ****     #define CYCODE
  53:Generated_Source\PSoC6/cyfitter_amux.c **** #endif
  54:Generated_Source\PSoC6/cyfitter_amux.c **** #ifndef CYDATA
  55:Generated_Source\PSoC6/cyfitter_amux.c ****     #define CYDATA
  56:Generated_Source\PSoC6/cyfitter_amux.c **** #endif
  57:Generated_Source\PSoC6/cyfitter_amux.c **** #ifndef CYFAR
  58:Generated_Source\PSoC6/cyfitter_amux.c ****     #define CYFAR
  59:Generated_Source\PSoC6/cyfitter_amux.c **** #endif
  60:Generated_Source\PSoC6/cyfitter_amux.c **** #ifndef CYXDATA
  61:Generated_Source\PSoC6/cyfitter_amux.c ****     #define CYXDATA
  62:Generated_Source\PSoC6/cyfitter_amux.c **** #endif
  63:Generated_Source\PSoC6/cyfitter_amux.c **** 
  64:Generated_Source\PSoC6/cyfitter_amux.c **** 
  65:Generated_Source\PSoC6/cyfitter_amux.c **** CY_CFG_UNUSED
  66:Generated_Source\PSoC6/cyfitter_amux.c **** static void CYMEMZERO(void *s, size_t n);
  67:Generated_Source\PSoC6/cyfitter_amux.c **** CY_CFG_UNUSED
  68:Generated_Source\PSoC6/cyfitter_amux.c **** static void CYMEMZERO(void *s, size_t n)
  69:Generated_Source\PSoC6/cyfitter_amux.c **** {
  70:Generated_Source\PSoC6/cyfitter_amux.c **** 	(void)memset(s, 0, n);
  71:Generated_Source\PSoC6/cyfitter_amux.c **** }
  72:Generated_Source\PSoC6/cyfitter_amux.c **** CY_CFG_UNUSED
  73:Generated_Source\PSoC6/cyfitter_amux.c **** static void CYCONFIGCPY(void *dest, const void *src, size_t n);
  74:Generated_Source\PSoC6/cyfitter_amux.c **** CY_CFG_UNUSED
  75:Generated_Source\PSoC6/cyfitter_amux.c **** static void CYCONFIGCPY(void *dest, const void *src, size_t n)
  76:Generated_Source\PSoC6/cyfitter_amux.c **** {
  77:Generated_Source\PSoC6/cyfitter_amux.c **** 	(void)memcpy(dest, src, n);
  78:Generated_Source\PSoC6/cyfitter_amux.c **** }
  79:Generated_Source\PSoC6/cyfitter_amux.c **** CY_CFG_UNUSED
  80:Generated_Source\PSoC6/cyfitter_amux.c **** static void CYCONFIGCPYCODE(void *dest, const void *src, size_t n);
  81:Generated_Source\PSoC6/cyfitter_amux.c **** CY_CFG_UNUSED
  82:Generated_Source\PSoC6/cyfitter_amux.c **** static void CYCONFIGCPYCODE(void *dest, const void *src, size_t n)
  83:Generated_Source\PSoC6/cyfitter_amux.c **** {
  84:Generated_Source\PSoC6/cyfitter_amux.c **** 	(void)memcpy(dest, src, n);
  85:Generated_Source\PSoC6/cyfitter_amux.c **** }
  86:Generated_Source\PSoC6/cyfitter_amux.c **** 
ARM GAS  C:\Users\43479\AppData\Local\Temp\ccmDuM5D.s 			page 3


  87:Generated_Source\PSoC6/cyfitter_amux.c **** 
  88:Generated_Source\PSoC6/cyfitter_amux.c **** #define CY_AMUX_UNUSED CYREG_CPUSS_CM0_STATUS
  89:Generated_Source\PSoC6/cyfitter_amux.c **** /*******************************************************************************
  90:Generated_Source\PSoC6/cyfitter_amux.c **** * Function Name: AMux_2_Set
  91:Generated_Source\PSoC6/cyfitter_amux.c **** ********************************************************************************
  92:Generated_Source\PSoC6/cyfitter_amux.c **** * Summary:
  93:Generated_Source\PSoC6/cyfitter_amux.c **** *  This function is used to set a particular channel as active on the AMux.
  94:Generated_Source\PSoC6/cyfitter_amux.c **** *
  95:Generated_Source\PSoC6/cyfitter_amux.c **** * Parameters:  
  96:Generated_Source\PSoC6/cyfitter_amux.c **** *   channel - The mux channel input to set as active
  97:Generated_Source\PSoC6/cyfitter_amux.c **** *
  98:Generated_Source\PSoC6/cyfitter_amux.c **** * Return:
  99:Generated_Source\PSoC6/cyfitter_amux.c **** *   void
 100:Generated_Source\PSoC6/cyfitter_amux.c **** *
 101:Generated_Source\PSoC6/cyfitter_amux.c **** *******************************************************************************/
 102:Generated_Source\PSoC6/cyfitter_amux.c **** void AMux_2_Set(uint8 channel)
 103:Generated_Source\PSoC6/cyfitter_amux.c **** {
  29              		.loc 1 103 0
  30              		.cfi_startproc
  31              		@ args = 0, pretend = 0, frame = 0
  32              		@ frame_needed = 0, uses_anonymous_args = 0
  33              		@ link register save eliminated.
  34              	.LVL0:
 104:Generated_Source\PSoC6/cyfitter_amux.c **** 	switch (channel) {
  35              		.loc 1 104 0
  36 0000 0528     		cmp	r0, #5
  37 0002 21D8     		bhi	.L1
  38 0004 DFE800F0 		tbb	[pc, r0]
  39              	.L4:
  40 0008 03       		.byte	(.L3-.L4)/2
  41 0009 08       		.byte	(.L5-.L4)/2
  42 000a 0D       		.byte	(.L6-.L4)/2
  43 000b 12       		.byte	(.L7-.L4)/2
  44 000c 17       		.byte	(.L8-.L4)/2
  45 000d 1C       		.byte	(.L9-.L4)/2
  46              		.p2align 1
  47              	.L3:
 105:Generated_Source\PSoC6/cyfitter_amux.c **** 		case 0u:
 106:Generated_Source\PSoC6/cyfitter_amux.c **** 			CY_SET_REG32((void CYXDATA *)CYREG_SAR_MUX_SWITCH0, (0x100u));
  48              		.loc 1 106 0
  49 000e 4FF48072 		mov	r2, #256
  50 0012 0E4B     		ldr	r3, .L10
  51 0014 1A60     		str	r2, [r3]
 107:Generated_Source\PSoC6/cyfitter_amux.c **** 			break;
  52              		.loc 1 107 0
  53 0016 7047     		bx	lr
  54              	.L5:
 108:Generated_Source\PSoC6/cyfitter_amux.c **** 		case 1u:
 109:Generated_Source\PSoC6/cyfitter_amux.c **** 			CY_SET_REG32((void CYXDATA *)CYREG_SAR_MUX_SWITCH0, (0x200u));
  55              		.loc 1 109 0
  56 0018 4FF40072 		mov	r2, #512
  57 001c 0B4B     		ldr	r3, .L10
  58 001e 1A60     		str	r2, [r3]
 110:Generated_Source\PSoC6/cyfitter_amux.c **** 			break;
  59              		.loc 1 110 0
  60 0020 7047     		bx	lr
  61              	.L6:
ARM GAS  C:\Users\43479\AppData\Local\Temp\ccmDuM5D.s 			page 4


 111:Generated_Source\PSoC6/cyfitter_amux.c **** 		case 2u:
 112:Generated_Source\PSoC6/cyfitter_amux.c **** 			CY_SET_REG32((void CYXDATA *)CYREG_SAR_MUX_SWITCH0, (0x400u));
  62              		.loc 1 112 0
  63 0022 4FF48062 		mov	r2, #1024
  64 0026 094B     		ldr	r3, .L10
  65 0028 1A60     		str	r2, [r3]
 113:Generated_Source\PSoC6/cyfitter_amux.c **** 			break;
  66              		.loc 1 113 0
  67 002a 7047     		bx	lr
  68              	.L7:
 114:Generated_Source\PSoC6/cyfitter_amux.c **** 		case 3u:
 115:Generated_Source\PSoC6/cyfitter_amux.c **** 			CY_SET_REG32((void CYXDATA *)CYREG_SAR_MUX_SWITCH0, (0x800u));
  69              		.loc 1 115 0
  70 002c 4FF40062 		mov	r2, #2048
  71 0030 064B     		ldr	r3, .L10
  72 0032 1A60     		str	r2, [r3]
 116:Generated_Source\PSoC6/cyfitter_amux.c **** 			break;
  73              		.loc 1 116 0
  74 0034 7047     		bx	lr
  75              	.L8:
 117:Generated_Source\PSoC6/cyfitter_amux.c **** 		case 4u:
 118:Generated_Source\PSoC6/cyfitter_amux.c **** 			CY_SET_REG32((void CYXDATA *)CYREG_SAR_MUX_SWITCH0, (0x1000u));
  76              		.loc 1 118 0
  77 0036 4FF48052 		mov	r2, #4096
  78 003a 044B     		ldr	r3, .L10
  79 003c 1A60     		str	r2, [r3]
 119:Generated_Source\PSoC6/cyfitter_amux.c **** 			break;
  80              		.loc 1 119 0
  81 003e 7047     		bx	lr
  82              	.L9:
 120:Generated_Source\PSoC6/cyfitter_amux.c **** 		case 5u:
 121:Generated_Source\PSoC6/cyfitter_amux.c **** 			CY_SET_REG32((void CYXDATA *)CYREG_SAR_MUX_SWITCH0, (0x2000u));
  83              		.loc 1 121 0
  84 0040 4FF40052 		mov	r2, #8192
  85 0044 014B     		ldr	r3, .L10
  86 0046 1A60     		str	r2, [r3]
  87              	.L1:
  88 0048 7047     		bx	lr
  89              	.L11:
  90 004a 00BF     		.align	2
  91              	.L10:
  92 004c 00031D41 		.word	1092420352
  93              		.cfi_endproc
  94              	.LFE128:
  95              		.size	AMux_2_Set, .-AMux_2_Set
  96              		.section	.text.AMux_2_Unset,"ax",%progbits
  97              		.align	2
  98              		.global	AMux_2_Unset
  99              		.thumb
 100              		.thumb_func
 101              		.type	AMux_2_Unset, %function
 102              	AMux_2_Unset:
 103              	.LFB129:
 122:Generated_Source\PSoC6/cyfitter_amux.c **** 			break;
 123:Generated_Source\PSoC6/cyfitter_amux.c **** 		default:
 124:Generated_Source\PSoC6/cyfitter_amux.c **** 			break;
 125:Generated_Source\PSoC6/cyfitter_amux.c **** 	}
ARM GAS  C:\Users\43479\AppData\Local\Temp\ccmDuM5D.s 			page 5


 126:Generated_Source\PSoC6/cyfitter_amux.c **** }
 127:Generated_Source\PSoC6/cyfitter_amux.c **** 
 128:Generated_Source\PSoC6/cyfitter_amux.c **** /*******************************************************************************
 129:Generated_Source\PSoC6/cyfitter_amux.c **** * Function Name: AMux_2_Unset
 130:Generated_Source\PSoC6/cyfitter_amux.c **** ********************************************************************************
 131:Generated_Source\PSoC6/cyfitter_amux.c **** * Summary:
 132:Generated_Source\PSoC6/cyfitter_amux.c **** *  This function is used to clear a particular channel from being active on the
 133:Generated_Source\PSoC6/cyfitter_amux.c **** *  AMux.
 134:Generated_Source\PSoC6/cyfitter_amux.c **** *
 135:Generated_Source\PSoC6/cyfitter_amux.c **** * Parameters:  
 136:Generated_Source\PSoC6/cyfitter_amux.c **** *   channel - The mux channel input to mark inactive
 137:Generated_Source\PSoC6/cyfitter_amux.c **** *
 138:Generated_Source\PSoC6/cyfitter_amux.c **** * Return:
 139:Generated_Source\PSoC6/cyfitter_amux.c **** *   void
 140:Generated_Source\PSoC6/cyfitter_amux.c **** *
 141:Generated_Source\PSoC6/cyfitter_amux.c **** *******************************************************************************/
 142:Generated_Source\PSoC6/cyfitter_amux.c **** void AMux_2_Unset(uint8 channel)
 143:Generated_Source\PSoC6/cyfitter_amux.c **** {
 104              		.loc 1 143 0
 105              		.cfi_startproc
 106              		@ args = 0, pretend = 0, frame = 0
 107              		@ frame_needed = 0, uses_anonymous_args = 0
 108              		@ link register save eliminated.
 109              	.LVL1:
 144:Generated_Source\PSoC6/cyfitter_amux.c **** 	switch (channel) {
 110              		.loc 1 144 0
 111 0000 0528     		cmp	r0, #5
 112 0002 21D8     		bhi	.L12
 113 0004 DFE800F0 		tbb	[pc, r0]
 114              	.L15:
 115 0008 03       		.byte	(.L14-.L15)/2
 116 0009 08       		.byte	(.L16-.L15)/2
 117 000a 0D       		.byte	(.L17-.L15)/2
 118 000b 12       		.byte	(.L18-.L15)/2
 119 000c 17       		.byte	(.L19-.L15)/2
 120 000d 1C       		.byte	(.L20-.L15)/2
 121              		.p2align 1
 122              	.L14:
 145:Generated_Source\PSoC6/cyfitter_amux.c **** 		case 0u:
 146:Generated_Source\PSoC6/cyfitter_amux.c **** 			CY_SET_REG32((void CYXDATA *)CYREG_SAR_MUX_SWITCH_CLEAR0, (0x100u));
 123              		.loc 1 146 0
 124 000e 4FF48072 		mov	r2, #256
 125 0012 0E4B     		ldr	r3, .L21
 126 0014 1A60     		str	r2, [r3]
 147:Generated_Source\PSoC6/cyfitter_amux.c **** 			break;
 127              		.loc 1 147 0
 128 0016 7047     		bx	lr
 129              	.L16:
 148:Generated_Source\PSoC6/cyfitter_amux.c **** 		case 1u:
 149:Generated_Source\PSoC6/cyfitter_amux.c **** 			CY_SET_REG32((void CYXDATA *)CYREG_SAR_MUX_SWITCH_CLEAR0, (0x200u));
 130              		.loc 1 149 0
 131 0018 4FF40072 		mov	r2, #512
 132 001c 0B4B     		ldr	r3, .L21
 133 001e 1A60     		str	r2, [r3]
 150:Generated_Source\PSoC6/cyfitter_amux.c **** 			break;
 134              		.loc 1 150 0
 135 0020 7047     		bx	lr
ARM GAS  C:\Users\43479\AppData\Local\Temp\ccmDuM5D.s 			page 6


 136              	.L17:
 151:Generated_Source\PSoC6/cyfitter_amux.c **** 		case 2u:
 152:Generated_Source\PSoC6/cyfitter_amux.c **** 			CY_SET_REG32((void CYXDATA *)CYREG_SAR_MUX_SWITCH_CLEAR0, (0x400u));
 137              		.loc 1 152 0
 138 0022 4FF48062 		mov	r2, #1024
 139 0026 094B     		ldr	r3, .L21
 140 0028 1A60     		str	r2, [r3]
 153:Generated_Source\PSoC6/cyfitter_amux.c **** 			break;
 141              		.loc 1 153 0
 142 002a 7047     		bx	lr
 143              	.L18:
 154:Generated_Source\PSoC6/cyfitter_amux.c **** 		case 3u:
 155:Generated_Source\PSoC6/cyfitter_amux.c **** 			CY_SET_REG32((void CYXDATA *)CYREG_SAR_MUX_SWITCH_CLEAR0, (0x800u));
 144              		.loc 1 155 0
 145 002c 4FF40062 		mov	r2, #2048
 146 0030 064B     		ldr	r3, .L21
 147 0032 1A60     		str	r2, [r3]
 156:Generated_Source\PSoC6/cyfitter_amux.c **** 			break;
 148              		.loc 1 156 0
 149 0034 7047     		bx	lr
 150              	.L19:
 157:Generated_Source\PSoC6/cyfitter_amux.c **** 		case 4u:
 158:Generated_Source\PSoC6/cyfitter_amux.c **** 			CY_SET_REG32((void CYXDATA *)CYREG_SAR_MUX_SWITCH_CLEAR0, (0x1000u));
 151              		.loc 1 158 0
 152 0036 4FF48052 		mov	r2, #4096
 153 003a 044B     		ldr	r3, .L21
 154 003c 1A60     		str	r2, [r3]
 159:Generated_Source\PSoC6/cyfitter_amux.c **** 			break;
 155              		.loc 1 159 0
 156 003e 7047     		bx	lr
 157              	.L20:
 160:Generated_Source\PSoC6/cyfitter_amux.c **** 		case 5u:
 161:Generated_Source\PSoC6/cyfitter_amux.c **** 			CY_SET_REG32((void CYXDATA *)CYREG_SAR_MUX_SWITCH_CLEAR0, (0x2000u));
 158              		.loc 1 161 0
 159 0040 4FF40052 		mov	r2, #8192
 160 0044 014B     		ldr	r3, .L21
 161 0046 1A60     		str	r2, [r3]
 162              	.L12:
 163 0048 7047     		bx	lr
 164              	.L22:
 165 004a 00BF     		.align	2
 166              	.L21:
 167 004c 04031D41 		.word	1092420356
 168              		.cfi_endproc
 169              	.LFE129:
 170              		.size	AMux_2_Unset, .-AMux_2_Unset
 171              		.section	.text.AMux_1_Set,"ax",%progbits
 172              		.align	2
 173              		.global	AMux_1_Set
 174              		.thumb
 175              		.thumb_func
 176              		.type	AMux_1_Set, %function
 177              	AMux_1_Set:
 178              	.LFB130:
 162:Generated_Source\PSoC6/cyfitter_amux.c **** 			break;
 163:Generated_Source\PSoC6/cyfitter_amux.c **** 		default:
 164:Generated_Source\PSoC6/cyfitter_amux.c **** 			break;
ARM GAS  C:\Users\43479\AppData\Local\Temp\ccmDuM5D.s 			page 7


 165:Generated_Source\PSoC6/cyfitter_amux.c **** 	}
 166:Generated_Source\PSoC6/cyfitter_amux.c **** }
 167:Generated_Source\PSoC6/cyfitter_amux.c **** 
 168:Generated_Source\PSoC6/cyfitter_amux.c **** /*******************************************************************************
 169:Generated_Source\PSoC6/cyfitter_amux.c **** * Function Name: AMux_1_Set
 170:Generated_Source\PSoC6/cyfitter_amux.c **** ********************************************************************************
 171:Generated_Source\PSoC6/cyfitter_amux.c **** * Summary:
 172:Generated_Source\PSoC6/cyfitter_amux.c **** *  This function is used to set a particular channel as active on the AMux.
 173:Generated_Source\PSoC6/cyfitter_amux.c **** *
 174:Generated_Source\PSoC6/cyfitter_amux.c **** * Parameters:  
 175:Generated_Source\PSoC6/cyfitter_amux.c **** *   channel - The mux channel input to set as active
 176:Generated_Source\PSoC6/cyfitter_amux.c **** *
 177:Generated_Source\PSoC6/cyfitter_amux.c **** * Return:
 178:Generated_Source\PSoC6/cyfitter_amux.c **** *   void
 179:Generated_Source\PSoC6/cyfitter_amux.c **** *
 180:Generated_Source\PSoC6/cyfitter_amux.c **** *******************************************************************************/
 181:Generated_Source\PSoC6/cyfitter_amux.c **** void AMux_1_Set(uint8 channel)
 182:Generated_Source\PSoC6/cyfitter_amux.c **** {
 179              		.loc 1 182 0
 180              		.cfi_startproc
 181              		@ args = 0, pretend = 0, frame = 0
 182              		@ frame_needed = 0, uses_anonymous_args = 0
 183              		@ link register save eliminated.
 184              	.LVL2:
 183:Generated_Source\PSoC6/cyfitter_amux.c **** 	switch (channel) {
 185              		.loc 1 183 0
 186 0000 0528     		cmp	r0, #5
 187 0002 27D8     		bhi	.L23
 188 0004 DFE800F0 		tbb	[pc, r0]
 189              	.L26:
 190 0008 03       		.byte	(.L25-.L26)/2
 191 0009 09       		.byte	(.L27-.L26)/2
 192 000a 0F       		.byte	(.L28-.L26)/2
 193 000b 15       		.byte	(.L29-.L26)/2
 194 000c 1B       		.byte	(.L30-.L26)/2
 195 000d 21       		.byte	(.L31-.L26)/2
 196              		.p2align 1
 197              	.L25:
 184:Generated_Source\PSoC6/cyfitter_amux.c **** 		case 0u:
 185:Generated_Source\PSoC6/cyfitter_amux.c **** 			CY_SET_REG32((void CYXDATA *)CYREG_HSIOM_PRT9_PORT_SEL0, (CY_GET_REG32((void CYXDATA *)CYREG_HSI
 198              		.loc 1 185 0
 199 000e 124A     		ldr	r2, .L32
 200 0010 1368     		ldr	r3, [r2]
 201 0012 43F00503 		orr	r3, r3, #5
 202 0016 1360     		str	r3, [r2]
 186:Generated_Source\PSoC6/cyfitter_amux.c **** 			break;
 203              		.loc 1 186 0
 204 0018 7047     		bx	lr
 205              	.L27:
 187:Generated_Source\PSoC6/cyfitter_amux.c **** 		case 1u:
 188:Generated_Source\PSoC6/cyfitter_amux.c **** 			CY_SET_REG32((void CYXDATA *)CYREG_HSIOM_PRT9_PORT_SEL0, (CY_GET_REG32((void CYXDATA *)CYREG_HSI
 206              		.loc 1 188 0
 207 001a 0F4A     		ldr	r2, .L32
 208 001c 1368     		ldr	r3, [r2]
 209 001e 43F4A063 		orr	r3, r3, #1280
 210 0022 1360     		str	r3, [r2]
 189:Generated_Source\PSoC6/cyfitter_amux.c **** 			break;
ARM GAS  C:\Users\43479\AppData\Local\Temp\ccmDuM5D.s 			page 8


 211              		.loc 1 189 0
 212 0024 7047     		bx	lr
 213              	.L28:
 190:Generated_Source\PSoC6/cyfitter_amux.c **** 		case 2u:
 191:Generated_Source\PSoC6/cyfitter_amux.c **** 			CY_SET_REG32((void CYXDATA *)CYREG_HSIOM_PRT9_PORT_SEL0, (CY_GET_REG32((void CYXDATA *)CYREG_HSI
 214              		.loc 1 191 0
 215 0026 0C4A     		ldr	r2, .L32
 216 0028 1368     		ldr	r3, [r2]
 217 002a 43F4A023 		orr	r3, r3, #327680
 218 002e 1360     		str	r3, [r2]
 192:Generated_Source\PSoC6/cyfitter_amux.c **** 			break;
 219              		.loc 1 192 0
 220 0030 7047     		bx	lr
 221              	.L29:
 193:Generated_Source\PSoC6/cyfitter_amux.c **** 		case 3u:
 194:Generated_Source\PSoC6/cyfitter_amux.c **** 			CY_SET_REG32((void CYXDATA *)CYREG_HSIOM_PRT9_PORT_SEL1, (CY_GET_REG32((void CYXDATA *)CYREG_HSI
 222              		.loc 1 194 0
 223 0032 0A4A     		ldr	r2, .L32+4
 224 0034 1368     		ldr	r3, [r2]
 225 0036 43F0A063 		orr	r3, r3, #83886080
 226 003a 1360     		str	r3, [r2]
 195:Generated_Source\PSoC6/cyfitter_amux.c **** 			break;
 227              		.loc 1 195 0
 228 003c 7047     		bx	lr
 229              	.L30:
 196:Generated_Source\PSoC6/cyfitter_amux.c **** 		case 4u:
 197:Generated_Source\PSoC6/cyfitter_amux.c **** 			CY_SET_REG32((void CYXDATA *)CYREG_HSIOM_PRT9_PORT_SEL1, (CY_GET_REG32((void CYXDATA *)CYREG_HSI
 230              		.loc 1 197 0
 231 003e 074A     		ldr	r2, .L32+4
 232 0040 1368     		ldr	r3, [r2]
 233 0042 43F00503 		orr	r3, r3, #5
 234 0046 1360     		str	r3, [r2]
 198:Generated_Source\PSoC6/cyfitter_amux.c **** 			break;
 235              		.loc 1 198 0
 236 0048 7047     		bx	lr
 237              	.L31:
 199:Generated_Source\PSoC6/cyfitter_amux.c **** 		case 5u:
 200:Generated_Source\PSoC6/cyfitter_amux.c **** 			CY_SET_REG32((void CYXDATA *)CYREG_HSIOM_PRT9_PORT_SEL1, (CY_GET_REG32((void CYXDATA *)CYREG_HSI
 238              		.loc 1 200 0
 239 004a 044A     		ldr	r2, .L32+4
 240 004c 1368     		ldr	r3, [r2]
 241 004e 43F4A063 		orr	r3, r3, #1280
 242 0052 1360     		str	r3, [r2]
 243              	.L23:
 244 0054 7047     		bx	lr
 245              	.L33:
 246 0056 00BF     		.align	2
 247              	.L32:
 248 0058 90003140 		.word	1076953232
 249 005c 94003140 		.word	1076953236
 250              		.cfi_endproc
 251              	.LFE130:
 252              		.size	AMux_1_Set, .-AMux_1_Set
 253              		.section	.text.AMux_1_Unset,"ax",%progbits
 254              		.align	2
 255              		.global	AMux_1_Unset
 256              		.thumb
ARM GAS  C:\Users\43479\AppData\Local\Temp\ccmDuM5D.s 			page 9


 257              		.thumb_func
 258              		.type	AMux_1_Unset, %function
 259              	AMux_1_Unset:
 260              	.LFB131:
 201:Generated_Source\PSoC6/cyfitter_amux.c **** 			break;
 202:Generated_Source\PSoC6/cyfitter_amux.c **** 		default:
 203:Generated_Source\PSoC6/cyfitter_amux.c **** 			break;
 204:Generated_Source\PSoC6/cyfitter_amux.c **** 	}
 205:Generated_Source\PSoC6/cyfitter_amux.c **** }
 206:Generated_Source\PSoC6/cyfitter_amux.c **** 
 207:Generated_Source\PSoC6/cyfitter_amux.c **** /*******************************************************************************
 208:Generated_Source\PSoC6/cyfitter_amux.c **** * Function Name: AMux_1_Unset
 209:Generated_Source\PSoC6/cyfitter_amux.c **** ********************************************************************************
 210:Generated_Source\PSoC6/cyfitter_amux.c **** * Summary:
 211:Generated_Source\PSoC6/cyfitter_amux.c **** *  This function is used to clear a particular channel from being active on the
 212:Generated_Source\PSoC6/cyfitter_amux.c **** *  AMux.
 213:Generated_Source\PSoC6/cyfitter_amux.c **** *
 214:Generated_Source\PSoC6/cyfitter_amux.c **** * Parameters:  
 215:Generated_Source\PSoC6/cyfitter_amux.c **** *   channel - The mux channel input to mark inactive
 216:Generated_Source\PSoC6/cyfitter_amux.c **** *
 217:Generated_Source\PSoC6/cyfitter_amux.c **** * Return:
 218:Generated_Source\PSoC6/cyfitter_amux.c **** *   void
 219:Generated_Source\PSoC6/cyfitter_amux.c **** *
 220:Generated_Source\PSoC6/cyfitter_amux.c **** *******************************************************************************/
 221:Generated_Source\PSoC6/cyfitter_amux.c **** void AMux_1_Unset(uint8 channel)
 222:Generated_Source\PSoC6/cyfitter_amux.c **** {
 261              		.loc 1 222 0
 262              		.cfi_startproc
 263              		@ args = 0, pretend = 0, frame = 0
 264              		@ frame_needed = 0, uses_anonymous_args = 0
 265              		@ link register save eliminated.
 266              	.LVL3:
 223:Generated_Source\PSoC6/cyfitter_amux.c **** 	switch (channel) {
 267              		.loc 1 223 0
 268 0000 0528     		cmp	r0, #5
 269 0002 27D8     		bhi	.L34
 270 0004 DFE800F0 		tbb	[pc, r0]
 271              	.L37:
 272 0008 03       		.byte	(.L36-.L37)/2
 273 0009 09       		.byte	(.L38-.L37)/2
 274 000a 0F       		.byte	(.L39-.L37)/2
 275 000b 15       		.byte	(.L40-.L37)/2
 276 000c 1B       		.byte	(.L41-.L37)/2
 277 000d 21       		.byte	(.L42-.L37)/2
 278              		.p2align 1
 279              	.L36:
 224:Generated_Source\PSoC6/cyfitter_amux.c **** 		case 0u:
 225:Generated_Source\PSoC6/cyfitter_amux.c **** 			CY_SET_REG32((void CYXDATA *)CYREG_HSIOM_PRT9_PORT_SEL0, (CY_GET_REG32((void CYXDATA *)CYREG_HSI
 280              		.loc 1 225 0
 281 000e 124A     		ldr	r2, .L43
 282 0010 1368     		ldr	r3, [r2]
 283 0012 23F00503 		bic	r3, r3, #5
 284 0016 1360     		str	r3, [r2]
 226:Generated_Source\PSoC6/cyfitter_amux.c **** 			break;
 285              		.loc 1 226 0
 286 0018 7047     		bx	lr
 287              	.L38:
ARM GAS  C:\Users\43479\AppData\Local\Temp\ccmDuM5D.s 			page 10


 227:Generated_Source\PSoC6/cyfitter_amux.c **** 		case 1u:
 228:Generated_Source\PSoC6/cyfitter_amux.c **** 			CY_SET_REG32((void CYXDATA *)CYREG_HSIOM_PRT9_PORT_SEL0, (CY_GET_REG32((void CYXDATA *)CYREG_HSI
 288              		.loc 1 228 0
 289 001a 0F4A     		ldr	r2, .L43
 290 001c 1368     		ldr	r3, [r2]
 291 001e 23F4A063 		bic	r3, r3, #1280
 292 0022 1360     		str	r3, [r2]
 229:Generated_Source\PSoC6/cyfitter_amux.c **** 			break;
 293              		.loc 1 229 0
 294 0024 7047     		bx	lr
 295              	.L39:
 230:Generated_Source\PSoC6/cyfitter_amux.c **** 		case 2u:
 231:Generated_Source\PSoC6/cyfitter_amux.c **** 			CY_SET_REG32((void CYXDATA *)CYREG_HSIOM_PRT9_PORT_SEL0, (CY_GET_REG32((void CYXDATA *)CYREG_HSI
 296              		.loc 1 231 0
 297 0026 0C4A     		ldr	r2, .L43
 298 0028 1368     		ldr	r3, [r2]
 299 002a 23F4A023 		bic	r3, r3, #327680
 300 002e 1360     		str	r3, [r2]
 232:Generated_Source\PSoC6/cyfitter_amux.c **** 			break;
 301              		.loc 1 232 0
 302 0030 7047     		bx	lr
 303              	.L40:
 233:Generated_Source\PSoC6/cyfitter_amux.c **** 		case 3u:
 234:Generated_Source\PSoC6/cyfitter_amux.c **** 			CY_SET_REG32((void CYXDATA *)CYREG_HSIOM_PRT9_PORT_SEL1, (CY_GET_REG32((void CYXDATA *)CYREG_HSI
 304              		.loc 1 234 0
 305 0032 0A4A     		ldr	r2, .L43+4
 306 0034 1368     		ldr	r3, [r2]
 307 0036 23F0A063 		bic	r3, r3, #83886080
 308 003a 1360     		str	r3, [r2]
 235:Generated_Source\PSoC6/cyfitter_amux.c **** 			break;
 309              		.loc 1 235 0
 310 003c 7047     		bx	lr
 311              	.L41:
 236:Generated_Source\PSoC6/cyfitter_amux.c **** 		case 4u:
 237:Generated_Source\PSoC6/cyfitter_amux.c **** 			CY_SET_REG32((void CYXDATA *)CYREG_HSIOM_PRT9_PORT_SEL1, (CY_GET_REG32((void CYXDATA *)CYREG_HSI
 312              		.loc 1 237 0
 313 003e 074A     		ldr	r2, .L43+4
 314 0040 1368     		ldr	r3, [r2]
 315 0042 23F00503 		bic	r3, r3, #5
 316 0046 1360     		str	r3, [r2]
 238:Generated_Source\PSoC6/cyfitter_amux.c **** 			break;
 317              		.loc 1 238 0
 318 0048 7047     		bx	lr
 319              	.L42:
 239:Generated_Source\PSoC6/cyfitter_amux.c **** 		case 5u:
 240:Generated_Source\PSoC6/cyfitter_amux.c **** 			CY_SET_REG32((void CYXDATA *)CYREG_HSIOM_PRT9_PORT_SEL1, (CY_GET_REG32((void CYXDATA *)CYREG_HSI
 320              		.loc 1 240 0
 321 004a 044A     		ldr	r2, .L43+4
 322 004c 1368     		ldr	r3, [r2]
 323 004e 23F4A063 		bic	r3, r3, #1280
 324 0052 1360     		str	r3, [r2]
 325              	.L34:
 326 0054 7047     		bx	lr
 327              	.L44:
 328 0056 00BF     		.align	2
 329              	.L43:
 330 0058 90003140 		.word	1076953232
ARM GAS  C:\Users\43479\AppData\Local\Temp\ccmDuM5D.s 			page 11


 331 005c 94003140 		.word	1076953236
 332              		.cfi_endproc
 333              	.LFE131:
 334              		.size	AMux_1_Unset, .-AMux_1_Unset
 335              		.text
 336              	.Letext0:
 337              		.file 2 "d:\\mysoftware\\cypress\\psoc creator\\4.4\\psoc creator\\import\\gnu\\arm\\5.4.1\\arm-no
 338              		.file 3 "d:\\mysoftware\\cypress\\psoc creator\\4.4\\psoc creator\\import\\gnu\\arm\\5.4.1\\arm-no
 339              		.file 4 "Generated_Source\\PSoC6\\pdl\\drivers/peripheral/syslib/cy_syslib.h"
 340              		.file 5 "Generated_Source\\PSoC6\\pdl\\cmsis/include/core_cm4.h"