ARM GAS  C:\Users\ADMINI~1\AppData\Local\Temp\ccJrRiTC.s 			page 1


   1              		.syntax unified
   2              		.cpu cortex-m4
   3              		.eabi_attribute 27, 1
   4              		.fpu fpv4-sp-d16
   5              		.eabi_attribute 20, 1
   6              		.eabi_attribute 21, 1
   7              		.eabi_attribute 23, 3
   8              		.eabi_attribute 24, 1
   9              		.eabi_attribute 25, 1
  10              		.eabi_attribute 26, 1
  11              		.eabi_attribute 30, 1
  12              		.eabi_attribute 34, 1
  13              		.eabi_attribute 18, 4
  14              		.thumb
  15              		.syntax unified
  16              		.file	"Thermistor.c"
  17              		.text
  18              	.Ltext0:
  19              		.cfi_sections	.debug_frame
  20              		.section	.text.Thermistor_GetResistance,"ax",%progbits
  21              		.align	2
  22              		.global	Thermistor_GetResistance
  23              		.thumb
  24              		.thumb_func
  25              		.type	Thermistor_GetResistance, %function
  26              	Thermistor_GetResistance:
  27              	.LFB703:
  28              		.file 1 "Thermistor.c"
   1:Thermistor.c  **** /*******************************************************************************
   2:Thermistor.c  **** * File Name: Thermistor.c
   3:Thermistor.c  **** * Version 1.20
   4:Thermistor.c  **** *
   5:Thermistor.c  **** * Description:
   6:Thermistor.c  **** *  This file provides the source code to the API for the ThermistorCalc
   7:Thermistor.c  **** *  Component.
   8:Thermistor.c  **** *
   9:Thermistor.c  **** * Note:
  10:Thermistor.c  **** *  None.
  11:Thermistor.c  **** *
  12:Thermistor.c  **** ********************************************************************************
  13:Thermistor.c  **** * Copyright 2013, Cypress Semiconductor Corporation.  All rights reserved.
  14:Thermistor.c  **** * You may use this file only in accordance with the license, terms, conditions,
  15:Thermistor.c  **** * disclaimers, and limitations in the end user license agreement accompanying
  16:Thermistor.c  **** * the software package with which this file was provided.
  17:Thermistor.c  **** *******************************************************************************/
  18:Thermistor.c  **** 
  19:Thermistor.c  **** #include "Thermistor.h"
  20:Thermistor.c  **** 
  21:Thermistor.c  **** 
  22:Thermistor.c  **** /*******************************************************************************
  23:Thermistor.c  **** * Function Name: Thermistor_GetResistance
  24:Thermistor.c  **** ********************************************************************************
  25:Thermistor.c  **** *
  26:Thermistor.c  **** * Summary:
  27:Thermistor.c  **** *  The digital values of the voltages across the reference resistor and the
  28:Thermistor.c  **** *  thermistor are passed to this function as parameters. The function returns
  29:Thermistor.c  **** *  the resistance, based on the voltage values.
ARM GAS  C:\Users\ADMINI~1\AppData\Local\Temp\ccJrRiTC.s 			page 2


  30:Thermistor.c  **** *
  31:Thermistor.c  **** * Parameters:
  32:Thermistor.c  **** *  vReference: the voltage across the reference resistor;
  33:Thermistor.c  **** *  vThermistor: the voltage across the thermistor.
  34:Thermistor.c  **** *  The ratio of these two voltages is used by this function. Therefore, the
  35:Thermistor.c  **** *  units for both parameters must be the same.
  36:Thermistor.c  **** *
  37:Thermistor.c  **** * Return:
  38:Thermistor.c  **** *  The return value is the resistance across the thermistor. The value returned
  39:Thermistor.c  **** *  is the resistance in Ohms.
  40:Thermistor.c  **** *
  41:Thermistor.c  **** *******************************************************************************/
  42:Thermistor.c  **** uint32 Thermistor_GetResistance(int16 vReference, int16 vThermistor)
  43:Thermistor.c  ****                                       
  44:Thermistor.c  **** {
  29              		.loc 1 44 0
  30              		.cfi_startproc
  31              		@ args = 0, pretend = 0, frame = 0
  32              		@ frame_needed = 0, uses_anonymous_args = 0
  33              		@ link register save eliminated.
  34              	.LVL0:
  45:Thermistor.c  ****     int32 resT;
  46:Thermistor.c  ****     int16 temp;
  47:Thermistor.c  **** 
  48:Thermistor.c  ****     /* Calculate thermistor resistance from the voltages */
  49:Thermistor.c  ****     resT = Thermistor_REF_RESISTOR * ((int32)vThermistor);
  35              		.loc 1 49 0
  36 0000 42F21073 		movw	r3, #10000
  37 0004 03FB01F1 		mul	r1, r3, r1
  38              	.LVL1:
  50:Thermistor.c  ****     if (vReference < 0)
  39              		.loc 1 50 0
  40 0008 0028     		cmp	r0, #0
  41              	.LVL2:
  42 000a 05DA     		bge	.L2
  51:Thermistor.c  ****     {
  52:Thermistor.c  ****         temp = -vReference;
  43              		.loc 1 52 0
  44 000c 4342     		negs	r3, r0
  45              	.LVL3:
  53:Thermistor.c  ****         temp = (int16)((uint16)((uint16)temp >> 1u));
  46              		.loc 1 53 0
  47 000e C3F34E03 		ubfx	r3, r3, #1, #15
  48              	.LVL4:
  54:Thermistor.c  ****         temp = -temp;
  49              		.loc 1 54 0
  50 0012 5B42     		negs	r3, r3
  51              	.LVL5:
  52 0014 1BB2     		sxth	r3, r3
  53              	.LVL6:
  54 0016 01E0     		b	.L3
  55              	.LVL7:
  56              	.L2:
  55:Thermistor.c  ****     }
  56:Thermistor.c  ****     else
  57:Thermistor.c  ****     {
  58:Thermistor.c  ****         temp = (int16)((uint16)((uint16)vReference >> 1u));
ARM GAS  C:\Users\ADMINI~1\AppData\Local\Temp\ccJrRiTC.s 			page 3


  57              		.loc 1 58 0
  58 0018 C0F34E03 		ubfx	r3, r0, #1, #15
  59              	.LVL8:
  60              	.L3:
  59:Thermistor.c  ****     }
  60:Thermistor.c  ****     resT += temp;
  61              		.loc 1 60 0
  62 001c 1944     		add	r1, r1, r3
  63              	.LVL9:
  61:Thermistor.c  ****     resT /= vReference;
  62:Thermistor.c  **** 
  63:Thermistor.c  ****     /* The ordering of Reference resistor value is specifically designed to keep the result from ov
  64:Thermistor.c  ****     return ((uint32)((uint32)resT << Thermistor_REF_RES_SHIFT));
  65:Thermistor.c  **** }
  64              		.loc 1 65 0
  65 001e 91FBF0F0 		sdiv	r0, r1, r0
  66              	.LVL10:
  67 0022 7047     		bx	lr
  68              		.cfi_endproc
  69              	.LFE703:
  70              		.size	Thermistor_GetResistance, .-Thermistor_GetResistance
  71              		.global	__aeabi_ui2d
  72              		.global	__aeabi_d2f
  73              		.global	__aeabi_f2d
  74              		.global	__aeabi_dmul
  75              		.global	__aeabi_dadd
  76              		.global	__aeabi_ddiv
  77              		.global	__aeabi_dsub
  78              		.section	.text.Thermistor_GetTemperature,"ax",%progbits
  79              		.align	2
  80              		.global	Thermistor_GetTemperature
  81              		.thumb
  82              		.thumb_func
  83              		.type	Thermistor_GetTemperature, %function
  84              	Thermistor_GetTemperature:
  85              	.LFB704:
  66:Thermistor.c  **** 
  67:Thermistor.c  **** 
  68:Thermistor.c  **** /*******************************************************************************
  69:Thermistor.c  **** * Function Name: Thermistor_GetTemperature
  70:Thermistor.c  **** ********************************************************************************
  71:Thermistor.c  **** *
  72:Thermistor.c  **** * Summary:
  73:Thermistor.c  **** *  The value of the thermistor resistance is passed to this function as a
  74:Thermistor.c  **** *  parameter. The function returns the temperature, based on the resistance
  75:Thermistor.c  **** *  value. The method used to calculate the temperature is dependent on whether
  76:Thermistor.c  **** *  Equation or LUT was selected in the Customizer.
  77:Thermistor.c  **** *
  78:Thermistor.c  **** * Parameters:
  79:Thermistor.c  **** *  resT: the resistance across the thermistor in Ohms.
  80:Thermistor.c  **** *
  81:Thermistor.c  **** * Return:
  82:Thermistor.c  **** *  The return value is the temperature in 1/100ths of degrees C. For example,
  83:Thermistor.c  **** *  the return value is 2345, when the actual temperature is 23.45 degrees C.
  84:Thermistor.c  **** *
  85:Thermistor.c  **** *******************************************************************************/
  86:Thermistor.c  **** int16 Thermistor_GetTemperature(uint32 resT) 
ARM GAS  C:\Users\ADMINI~1\AppData\Local\Temp\ccJrRiTC.s 			page 4


  87:Thermistor.c  **** {
  86              		.loc 1 87 0
  87              		.cfi_startproc
  88              		@ args = 0, pretend = 0, frame = 8
  89              		@ frame_needed = 0, uses_anonymous_args = 0
  90              	.LVL11:
  91 0000 F0B5     		push	{r4, r5, r6, r7, lr}
  92              		.cfi_def_cfa_offset 20
  93              		.cfi_offset 4, -20
  94              		.cfi_offset 5, -16
  95              		.cfi_offset 6, -12
  96              		.cfi_offset 7, -8
  97              		.cfi_offset 14, -4
  98 0002 83B0     		sub	sp, sp, #12
  99              		.cfi_def_cfa_offset 32
  88:Thermistor.c  ****     int16 tempTR;
  89:Thermistor.c  ****     
  90:Thermistor.c  ****     #if (Thermistor_IMPLEMENTATION == Thermistor_EQUATION_METHOD)
  91:Thermistor.c  **** 
  92:Thermistor.c  ****         float32 stEqn;
  93:Thermistor.c  ****         float32 logrT;
  94:Thermistor.c  **** 
  95:Thermistor.c  ****         /* Calculate thermistor resistance from the voltages */
  96:Thermistor.c  ****         #if(!CY_PSOC3)
  97:Thermistor.c  ****             logrT = (float32)log((float64)resT);
 100              		.loc 1 97 0
 101 0004 FFF7FEFF 		bl	__aeabi_ui2d
 102              	.LVL12:
 103 0008 FFF7FEFF 		bl	log
 104              	.LVL13:
 105 000c FFF7FEFF 		bl	__aeabi_d2f
 106              	.LVL14:
  98:Thermistor.c  ****         #else
  99:Thermistor.c  ****             logrT = log((float32)resT);
 100:Thermistor.c  ****         #endif  /* (!CY_PSOC3) */
 101:Thermistor.c  **** 
 102:Thermistor.c  ****         /* Calculate temperature from the resistance of thermistor using Steinhart-Hart Equation */
 103:Thermistor.c  ****         #if(!CY_PSOC3)
 104:Thermistor.c  ****             stEqn = (float32)(Thermistor_THA + (Thermistor_THB * logrT) + 
 107              		.loc 1 104 0
 108 0010 FFF7FEFF 		bl	__aeabi_f2d
 109              	.LVL15:
 110 0014 0646     		mov	r6, r0
 111 0016 0F46     		mov	r7, r1
 112 0018 27A3     		adr	r3, .L6+32
 113 001a D3E90023 		ldrd	r2, [r3]
 114 001e FFF7FEFF 		bl	__aeabi_dmul
 115              	.LVL16:
 116 0022 27A3     		adr	r3, .L6+40
 117 0024 D3E90023 		ldrd	r2, [r3]
 118 0028 FFF7FEFF 		bl	__aeabi_dadd
 119              	.LVL17:
 120 002c 0446     		mov	r4, r0
 121 002e 0D46     		mov	r5, r1
 105:Thermistor.c  ****                              (Thermistor_THC * pow((float64)logrT, (float32)3)));
 122              		.loc 1 105 0
 123 0030 0022     		movs	r2, #0
ARM GAS  C:\Users\ADMINI~1\AppData\Local\Temp\ccJrRiTC.s 			page 5


 124 0032 1D4B     		ldr	r3, .L6+16
 125 0034 3046     		mov	r0, r6
 126 0036 3946     		mov	r1, r7
 127 0038 FFF7FEFF 		bl	pow
 128              	.LVL18:
 129 003c 16A3     		adr	r3, .L6
 130 003e D3E90023 		ldrd	r2, [r3]
 131 0042 FFF7FEFF 		bl	__aeabi_dmul
 132              	.LVL19:
 104:Thermistor.c  ****                              (Thermistor_THC * pow((float64)logrT, (float32)3)));
 133              		.loc 1 104 0
 134 0046 0246     		mov	r2, r0
 135 0048 0B46     		mov	r3, r1
 136 004a 2046     		mov	r0, r4
 137 004c 2946     		mov	r1, r5
 138 004e FFF7FEFF 		bl	__aeabi_dadd
 139              	.LVL20:
 140 0052 FFF7FEFF 		bl	__aeabi_d2f
 141              	.LVL21:
 106:Thermistor.c  ****         #else
 107:Thermistor.c  ****             stEqn = (float32)(Thermistor_THA + (Thermistor_THB * logrT) + 
 108:Thermistor.c  ****                              (Thermistor_THC * pow(logrT, (float32)3)));
 109:Thermistor.c  ****         #endif  /* (!CY_PSOC3) */
 110:Thermistor.c  **** 
 111:Thermistor.c  ****         tempTR = (int16)((float32)((((1.0 / stEqn) - Thermistor_K2C) * (float32)Thermistor_SCALE) +
 142              		.loc 1 111 0
 143 0056 FFF7FEFF 		bl	__aeabi_f2d
 144              	.LVL22:
 145 005a 0246     		mov	r2, r0
 146 005c 0B46     		mov	r3, r1
 147 005e 0020     		movs	r0, #0
 148 0060 1249     		ldr	r1, .L6+20
 149 0062 FFF7FEFF 		bl	__aeabi_ddiv
 150              	.LVL23:
 151 0066 0EA3     		adr	r3, .L6+8
 152 0068 D3E90023 		ldrd	r2, [r3]
 153 006c FFF7FEFF 		bl	__aeabi_dsub
 154              	.LVL24:
 155 0070 0022     		movs	r2, #0
 156 0072 0F4B     		ldr	r3, .L6+24
 157 0074 FFF7FEFF 		bl	__aeabi_dmul
 158              	.LVL25:
 159 0078 0022     		movs	r2, #0
 160 007a 0E4B     		ldr	r3, .L6+28
 161 007c FFF7FEFF 		bl	__aeabi_dadd
 162              	.LVL26:
 163 0080 FFF7FEFF 		bl	__aeabi_d2f
 164              	.LVL27:
 165 0084 07EE900A 		vmov	s15, r0
 166 0088 FDEEE77A 		vcvt.s32.f32	s15, s15
 167 008c CDED017A 		vstr.32	s15, [sp, #4]	@ int
 168              	.LVL28:
 112:Thermistor.c  **** 
 113:Thermistor.c  ****     #else /* Thermistor_IMPLEMENTATION == Thermistor_LUT_METHOD */
 114:Thermistor.c  **** 
 115:Thermistor.c  ****         uint16 mid;
 116:Thermistor.c  ****         uint16 first = 0u;
ARM GAS  C:\Users\ADMINI~1\AppData\Local\Temp\ccJrRiTC.s 			page 6


 117:Thermistor.c  ****         uint16 last = Thermistor_LUT_SIZE - 1u;
 118:Thermistor.c  **** 
 119:Thermistor.c  ****         /* Calculate temperature from the resistance of thermistor by using the LUT */
 120:Thermistor.c  ****         while (first < last)
 121:Thermistor.c  ****         {
 122:Thermistor.c  ****             mid = (first + last) >> 1u;
 123:Thermistor.c  **** 
 124:Thermistor.c  ****             if ((0u == mid) || ((Thermistor_LUT_SIZE - 1u) == mid) || (resT == Thermistor_LUT[mid])
 125:Thermistor.c  ****             {
 126:Thermistor.c  ****                 last = mid;
 127:Thermistor.c  ****                 break;
 128:Thermistor.c  ****             }
 129:Thermistor.c  ****             else if (Thermistor_LUT[mid] > resT)
 130:Thermistor.c  ****             {
 131:Thermistor.c  ****                 first = mid + 1u;
 132:Thermistor.c  ****             }
 133:Thermistor.c  ****             else /* (Thermistor_LUT[mid] < resT) */
 134:Thermistor.c  ****             {
 135:Thermistor.c  ****                 last = mid - 1u;
 136:Thermistor.c  ****             }
 137:Thermistor.c  ****         }
 138:Thermistor.c  **** 
 139:Thermistor.c  ****         /* Calculation the closest entry in the LUT */
 140:Thermistor.c  ****         if ((Thermistor_LUT[last] > resT) && (last < (Thermistor_LUT_SIZE - 1u)) &&
 141:Thermistor.c  ****            ((Thermistor_LUT[last] - resT) > (resT - Thermistor_LUT[last + 1u])))
 142:Thermistor.c  ****         {
 143:Thermistor.c  ****             last++;
 144:Thermistor.c  ****         }
 145:Thermistor.c  ****         else if ((Thermistor_LUT[last] < resT) && (last > 0u) &&
 146:Thermistor.c  ****                 ((Thermistor_LUT[last - 1u] - resT) < (resT - Thermistor_LUT[last])))
 147:Thermistor.c  ****         {
 148:Thermistor.c  ****             last--;
 149:Thermistor.c  ****         }
 150:Thermistor.c  ****         else
 151:Thermistor.c  ****         {
 152:Thermistor.c  ****             /* Closest entry in the LUT already found */
 153:Thermistor.c  ****         }
 154:Thermistor.c  **** 
 155:Thermistor.c  ****         tempTR = Thermistor_MIN_TEMP + (int16)((uint16)(last * Thermistor_ACCURACY));
 156:Thermistor.c  **** 
 157:Thermistor.c  ****     #endif /* (Thermistor_IMPLEMENTATION == Thermistor_EQUATION_METHOD) */
 158:Thermistor.c  **** 
 159:Thermistor.c  ****     return (tempTR);
 160:Thermistor.c  **** }
 169              		.loc 1 160 0
 170 0090 BDF90400 		ldrsh	r0, [sp, #4]
 171 0094 03B0     		add	sp, sp, #12
 172              		.cfi_def_cfa_offset 20
 173              		@ sp needed
 174 0096 F0BD     		pop	{r4, r5, r6, r7, pc}
 175              	.LVL29:
 176              	.L7:
 177              		.align	3
 178              	.L6:
 179 0098 4D33E444 		.word	1155806029
 180 009c 25658B3E 		.word	1049322789
 181 00a0 66666666 		.word	1717986918
ARM GAS  C:\Users\ADMINI~1\AppData\Local\Temp\ccJrRiTC.s 			page 7


 182 00a4 66127140 		.word	1081152102
 183 00a8 00000840 		.word	1074266112
 184 00ac 0000F03F 		.word	1072693248
 185 00b0 00005940 		.word	1079574528
 186 00b4 0000E03F 		.word	1071644672
 187 00b8 6943AA9A 		.word	-1700117655
 188 00bc B34D303F 		.word	1060130227
 189 00c0 D8FD850B 		.word	193330648
 190 00c4 29994D3F 		.word	1062050089
 191              		.cfi_endproc
 192              	.LFE704:
 193              		.size	Thermistor_GetTemperature, .-Thermistor_GetTemperature
 194              		.text
 195              	.Letext0:
 196              		.file 2 "c:\\program files (x86)\\cypress\\psoc creator\\4.4\\psoc creator\\import\\gnu\\arm\\5.4.
 197              		.file 3 "c:\\program files (x86)\\cypress\\psoc creator\\4.4\\psoc creator\\import\\gnu\\arm\\5.4.
 198              		.file 4 "Generated_Source\\PSoC6\\pdl\\drivers/peripheral/syslib/cy_syslib.h"
 199              		.file 5 "Generated_Source\\PSoC6\\pdl\\drivers/peripheral/scb/cy_scb_spi.h"
 200              		.file 6 "Generated_Source\\PSoC6\\pdl\\drivers/peripheral/scb/cy_scb_uart.h"
 201              		.file 7 "Generated_Source\\PSoC6\\pdl\\drivers/peripheral/sar/cy_sar.h"
 202              		.file 8 "Generated_Source\\PSoC6/ADC_1.h"
 203              		.file 9 "Generated_Source\\PSoC6\\pdl\\cmsis/include/core_cm4.h"
 204              		.file 10 "Generated_Source\\PSoC6/UART_1.h"
 205              		.file 11 "Generated_Source\\PSoC6/WS_SPI.h"
 206              		.file 12 "c:\\program files (x86)\\cypress\\psoc creator\\4.4\\psoc creator\\import\\gnu\\arm\\5.4