ARM GAS  C:\Users\ADMINI~1\AppData\Local\Temp\ccwxx0OH.s 			page 1


   1              		.syntax unified
   2              		.cpu cortex-m0plus
   3              		.fpu softvfp
   4              		.eabi_attribute 20, 1
   5              		.eabi_attribute 21, 1
   6              		.eabi_attribute 23, 3
   7              		.eabi_attribute 24, 1
   8              		.eabi_attribute 25, 1
   9              		.eabi_attribute 26, 1
  10              		.eabi_attribute 30, 1
  11              		.eabi_attribute 34, 0
  12              		.eabi_attribute 18, 4
  13              		.thumb
  14              		.syntax unified
  15              		.file	"AMux_1.c"
  16              		.text
  17              	.Ltext0:
  18              		.cfi_sections	.debug_frame
  19              		.section	.text.AMux_1_Start,"ax",%progbits
  20              		.align	2
  21              		.global	AMux_1_Start
  22              		.code	16
  23              		.thumb_func
  24              		.type	AMux_1_Start, %function
  25              	AMux_1_Start:
  26              	.LFB36:
  27              		.file 1 "Generated_Source\\PSoC6\\AMux_1.c"
   1:Generated_Source\PSoC6/AMux_1.c **** /*******************************************************************************
   2:Generated_Source\PSoC6/AMux_1.c **** * File Name: AMux_1.c
   3:Generated_Source\PSoC6/AMux_1.c **** * Version 1.80
   4:Generated_Source\PSoC6/AMux_1.c **** *
   5:Generated_Source\PSoC6/AMux_1.c **** *  Description:
   6:Generated_Source\PSoC6/AMux_1.c **** *    This file contains all functions required for the analog multiplexer
   7:Generated_Source\PSoC6/AMux_1.c **** *    AMux User Module.
   8:Generated_Source\PSoC6/AMux_1.c **** *
   9:Generated_Source\PSoC6/AMux_1.c **** *   Note:
  10:Generated_Source\PSoC6/AMux_1.c **** *
  11:Generated_Source\PSoC6/AMux_1.c **** *******************************************************************************
  12:Generated_Source\PSoC6/AMux_1.c **** * Copyright 2008-2010, Cypress Semiconductor Corporation.  All rights reserved.
  13:Generated_Source\PSoC6/AMux_1.c **** * You may use this file only in accordance with the license, terms, conditions, 
  14:Generated_Source\PSoC6/AMux_1.c **** * disclaimers, and limitations in the end user license agreement accompanying 
  15:Generated_Source\PSoC6/AMux_1.c **** * the software package with which this file was provided.
  16:Generated_Source\PSoC6/AMux_1.c **** ********************************************************************************/
  17:Generated_Source\PSoC6/AMux_1.c **** 
  18:Generated_Source\PSoC6/AMux_1.c **** #include "AMux_1.h"
  19:Generated_Source\PSoC6/AMux_1.c **** 
  20:Generated_Source\PSoC6/AMux_1.c **** static uint8 AMux_1_lastChannel = AMux_1_NULL_CHANNEL;
  21:Generated_Source\PSoC6/AMux_1.c **** 
  22:Generated_Source\PSoC6/AMux_1.c **** 
  23:Generated_Source\PSoC6/AMux_1.c **** /*******************************************************************************
  24:Generated_Source\PSoC6/AMux_1.c **** * Function Name: AMux_1_Start
  25:Generated_Source\PSoC6/AMux_1.c **** ********************************************************************************
  26:Generated_Source\PSoC6/AMux_1.c **** * Summary:
  27:Generated_Source\PSoC6/AMux_1.c **** *  Disconnect all channels.
  28:Generated_Source\PSoC6/AMux_1.c **** *
  29:Generated_Source\PSoC6/AMux_1.c **** * Parameters:
  30:Generated_Source\PSoC6/AMux_1.c **** *  void
ARM GAS  C:\Users\ADMINI~1\AppData\Local\Temp\ccwxx0OH.s 			page 2


  31:Generated_Source\PSoC6/AMux_1.c **** *
  32:Generated_Source\PSoC6/AMux_1.c **** * Return:
  33:Generated_Source\PSoC6/AMux_1.c **** *  void
  34:Generated_Source\PSoC6/AMux_1.c **** *
  35:Generated_Source\PSoC6/AMux_1.c **** *******************************************************************************/
  36:Generated_Source\PSoC6/AMux_1.c **** void AMux_1_Start(void) 
  37:Generated_Source\PSoC6/AMux_1.c **** {
  28              		.loc 1 37 0
  29              		.cfi_startproc
  30              		@ args = 0, pretend = 0, frame = 0
  31              		@ frame_needed = 0, uses_anonymous_args = 0
  32 0000 10B5     		push	{r4, lr}
  33              		.cfi_def_cfa_offset 8
  34              		.cfi_offset 4, -8
  35              		.cfi_offset 14, -4
  36              	.LVL0:
  38:Generated_Source\PSoC6/AMux_1.c ****     uint8 chan;
  39:Generated_Source\PSoC6/AMux_1.c **** 
  40:Generated_Source\PSoC6/AMux_1.c ****     for(chan = 0u; chan < AMux_1_CHANNELS ; chan++)
  37              		.loc 1 40 0
  38 0002 0024     		movs	r4, #0
  39 0004 04E0     		b	.L2
  40              	.LVL1:
  41              	.L3:
  41:Generated_Source\PSoC6/AMux_1.c ****     {
  42:Generated_Source\PSoC6/AMux_1.c **** #if (AMux_1_MUXTYPE == AMux_1_MUX_SINGLE)
  43:Generated_Source\PSoC6/AMux_1.c ****         AMux_1_Unset(chan);
  42              		.loc 1 43 0 discriminator 3
  43 0006 2000     		movs	r0, r4
  44 0008 FFF7FEFF 		bl	AMux_1_Unset
  45              	.LVL2:
  40:Generated_Source\PSoC6/AMux_1.c ****     {
  46              		.loc 1 40 0 discriminator 3
  47 000c 0134     		adds	r4, r4, #1
  48              	.LVL3:
  49 000e E4B2     		uxtb	r4, r4
  50              	.LVL4:
  51              	.L2:
  40:Generated_Source\PSoC6/AMux_1.c ****     {
  52              		.loc 1 40 0 is_stmt 0 discriminator 1
  53 0010 052C     		cmp	r4, #5
  54 0012 F8D9     		bls	.L3
  44:Generated_Source\PSoC6/AMux_1.c **** #else
  45:Generated_Source\PSoC6/AMux_1.c ****         AMux_1_CYAMUXSIDE_A_Unset(chan);
  46:Generated_Source\PSoC6/AMux_1.c ****         AMux_1_CYAMUXSIDE_B_Unset(chan);
  47:Generated_Source\PSoC6/AMux_1.c **** #endif
  48:Generated_Source\PSoC6/AMux_1.c ****     }
  49:Generated_Source\PSoC6/AMux_1.c **** 
  50:Generated_Source\PSoC6/AMux_1.c ****     AMux_1_lastChannel = AMux_1_NULL_CHANNEL;
  55              		.loc 1 50 0 is_stmt 1
  56 0014 FF22     		movs	r2, #255
  57 0016 014B     		ldr	r3, .L4
  58 0018 1A70     		strb	r2, [r3]
  51:Generated_Source\PSoC6/AMux_1.c **** }
  59              		.loc 1 51 0
  60              		@ sp needed
  61              	.LVL5:
ARM GAS  C:\Users\ADMINI~1\AppData\Local\Temp\ccwxx0OH.s 			page 3


  62 001a 10BD     		pop	{r4, pc}
  63              	.L5:
  64              		.align	2
  65              	.L4:
  66 001c 00000000 		.word	.LANCHOR0
  67              		.cfi_endproc
  68              	.LFE36:
  69              		.size	AMux_1_Start, .-AMux_1_Start
  70              		.section	.text.AMux_1_Select,"ax",%progbits
  71              		.align	2
  72              		.global	AMux_1_Select
  73              		.code	16
  74              		.thumb_func
  75              		.type	AMux_1_Select, %function
  76              	AMux_1_Select:
  77              	.LFB37:
  52:Generated_Source\PSoC6/AMux_1.c **** 
  53:Generated_Source\PSoC6/AMux_1.c **** 
  54:Generated_Source\PSoC6/AMux_1.c **** #if (!AMux_1_ATMOSTONE)
  55:Generated_Source\PSoC6/AMux_1.c **** /*******************************************************************************
  56:Generated_Source\PSoC6/AMux_1.c **** * Function Name: AMux_1_Select
  57:Generated_Source\PSoC6/AMux_1.c **** ********************************************************************************
  58:Generated_Source\PSoC6/AMux_1.c **** * Summary:
  59:Generated_Source\PSoC6/AMux_1.c **** *  This functions first disconnects all channels then connects the given
  60:Generated_Source\PSoC6/AMux_1.c **** *  channel.
  61:Generated_Source\PSoC6/AMux_1.c **** *
  62:Generated_Source\PSoC6/AMux_1.c **** * Parameters:
  63:Generated_Source\PSoC6/AMux_1.c **** *  channel:  The channel to connect to the common terminal.
  64:Generated_Source\PSoC6/AMux_1.c **** *
  65:Generated_Source\PSoC6/AMux_1.c **** * Return:
  66:Generated_Source\PSoC6/AMux_1.c **** *  void
  67:Generated_Source\PSoC6/AMux_1.c **** *
  68:Generated_Source\PSoC6/AMux_1.c **** *******************************************************************************/
  69:Generated_Source\PSoC6/AMux_1.c **** void AMux_1_Select(uint8 channel) 
  70:Generated_Source\PSoC6/AMux_1.c **** {
  78              		.loc 1 70 0
  79              		.cfi_startproc
  80              		@ args = 0, pretend = 0, frame = 0
  81              		@ frame_needed = 0, uses_anonymous_args = 0
  82              	.LVL6:
  83 0000 10B5     		push	{r4, lr}
  84              		.cfi_def_cfa_offset 8
  85              		.cfi_offset 4, -8
  86              		.cfi_offset 14, -4
  87 0002 0400     		movs	r4, r0
  71:Generated_Source\PSoC6/AMux_1.c ****     AMux_1_DisconnectAll();        /* Disconnect all previous connections */
  88              		.loc 1 71 0
  89 0004 FFF7FEFF 		bl	AMux_1_Start
  90              	.LVL7:
  72:Generated_Source\PSoC6/AMux_1.c ****     AMux_1_Connect(channel);       /* Make the given selection */
  91              		.loc 1 72 0
  92 0008 2000     		movs	r0, r4
  93 000a FFF7FEFF 		bl	AMux_1_Set
  94              	.LVL8:
  73:Generated_Source\PSoC6/AMux_1.c ****     AMux_1_lastChannel = channel;  /* Update last channel */
  95              		.loc 1 73 0
  96 000e 014B     		ldr	r3, .L7
ARM GAS  C:\Users\ADMINI~1\AppData\Local\Temp\ccwxx0OH.s 			page 4


  97 0010 1C70     		strb	r4, [r3]
  74:Generated_Source\PSoC6/AMux_1.c **** }
  98              		.loc 1 74 0
  99              		@ sp needed
 100 0012 10BD     		pop	{r4, pc}
 101              	.L8:
 102              		.align	2
 103              	.L7:
 104 0014 00000000 		.word	.LANCHOR0
 105              		.cfi_endproc
 106              	.LFE37:
 107              		.size	AMux_1_Select, .-AMux_1_Select
 108              		.section	.text.AMux_1_FastSelect,"ax",%progbits
 109              		.align	2
 110              		.global	AMux_1_FastSelect
 111              		.code	16
 112              		.thumb_func
 113              		.type	AMux_1_FastSelect, %function
 114              	AMux_1_FastSelect:
 115              	.LFB38:
  75:Generated_Source\PSoC6/AMux_1.c **** #endif
  76:Generated_Source\PSoC6/AMux_1.c **** 
  77:Generated_Source\PSoC6/AMux_1.c **** 
  78:Generated_Source\PSoC6/AMux_1.c **** /*******************************************************************************
  79:Generated_Source\PSoC6/AMux_1.c **** * Function Name: AMux_1_FastSelect
  80:Generated_Source\PSoC6/AMux_1.c **** ********************************************************************************
  81:Generated_Source\PSoC6/AMux_1.c **** * Summary:
  82:Generated_Source\PSoC6/AMux_1.c **** *  This function first disconnects the last connection made with FastSelect or
  83:Generated_Source\PSoC6/AMux_1.c **** *  Select, then connects the given channel. The FastSelect function is similar
  84:Generated_Source\PSoC6/AMux_1.c **** *  to the Select function, except it is faster since it only disconnects the
  85:Generated_Source\PSoC6/AMux_1.c **** *  last channel selected rather than all channels.
  86:Generated_Source\PSoC6/AMux_1.c **** *
  87:Generated_Source\PSoC6/AMux_1.c **** * Parameters:
  88:Generated_Source\PSoC6/AMux_1.c **** *  channel:  The channel to connect to the common terminal.
  89:Generated_Source\PSoC6/AMux_1.c **** *
  90:Generated_Source\PSoC6/AMux_1.c **** * Return:
  91:Generated_Source\PSoC6/AMux_1.c **** *  void
  92:Generated_Source\PSoC6/AMux_1.c **** *
  93:Generated_Source\PSoC6/AMux_1.c **** *******************************************************************************/
  94:Generated_Source\PSoC6/AMux_1.c **** void AMux_1_FastSelect(uint8 channel) 
  95:Generated_Source\PSoC6/AMux_1.c **** {
 116              		.loc 1 95 0
 117              		.cfi_startproc
 118              		@ args = 0, pretend = 0, frame = 0
 119              		@ frame_needed = 0, uses_anonymous_args = 0
 120              	.LVL9:
 121 0000 10B5     		push	{r4, lr}
 122              		.cfi_def_cfa_offset 8
 123              		.cfi_offset 4, -8
 124              		.cfi_offset 14, -4
 125 0002 0400     		movs	r4, r0
  96:Generated_Source\PSoC6/AMux_1.c ****     /* Disconnect the last valid channel */
  97:Generated_Source\PSoC6/AMux_1.c ****     if( AMux_1_lastChannel != AMux_1_NULL_CHANNEL)
 126              		.loc 1 97 0
 127 0004 054B     		ldr	r3, .L11
 128 0006 1878     		ldrb	r0, [r3]
 129              	.LVL10:
ARM GAS  C:\Users\ADMINI~1\AppData\Local\Temp\ccwxx0OH.s 			page 5


 130 0008 FF28     		cmp	r0, #255
 131 000a 01D0     		beq	.L10
  98:Generated_Source\PSoC6/AMux_1.c ****     {
  99:Generated_Source\PSoC6/AMux_1.c ****         AMux_1_Disconnect(AMux_1_lastChannel);
 132              		.loc 1 99 0
 133 000c FFF7FEFF 		bl	AMux_1_Unset
 134              	.LVL11:
 135              	.L10:
 100:Generated_Source\PSoC6/AMux_1.c ****     }
 101:Generated_Source\PSoC6/AMux_1.c **** 
 102:Generated_Source\PSoC6/AMux_1.c ****     /* Make the new channel connection */
 103:Generated_Source\PSoC6/AMux_1.c **** #if (AMux_1_MUXTYPE == AMux_1_MUX_SINGLE)
 104:Generated_Source\PSoC6/AMux_1.c ****     AMux_1_Set(channel);
 136              		.loc 1 104 0
 137 0010 2000     		movs	r0, r4
 138 0012 FFF7FEFF 		bl	AMux_1_Set
 139              	.LVL12:
 105:Generated_Source\PSoC6/AMux_1.c **** #else
 106:Generated_Source\PSoC6/AMux_1.c ****     AMux_1_CYAMUXSIDE_A_Set(channel);
 107:Generated_Source\PSoC6/AMux_1.c ****     AMux_1_CYAMUXSIDE_B_Set(channel);
 108:Generated_Source\PSoC6/AMux_1.c **** #endif
 109:Generated_Source\PSoC6/AMux_1.c **** 
 110:Generated_Source\PSoC6/AMux_1.c **** 
 111:Generated_Source\PSoC6/AMux_1.c ****     AMux_1_lastChannel = channel;   /* Update last channel */
 140              		.loc 1 111 0
 141 0016 014B     		ldr	r3, .L11
 142 0018 1C70     		strb	r4, [r3]
 112:Generated_Source\PSoC6/AMux_1.c **** }
 143              		.loc 1 112 0
 144              		@ sp needed
 145 001a 10BD     		pop	{r4, pc}
 146              	.L12:
 147              		.align	2
 148              	.L11:
 149 001c 00000000 		.word	.LANCHOR0
 150              		.cfi_endproc
 151              	.LFE38:
 152              		.size	AMux_1_FastSelect, .-AMux_1_FastSelect
 153              		.data
 154              		.set	.LANCHOR0,. + 0
 155              		.type	AMux_1_lastChannel, %object
 156              		.size	AMux_1_lastChannel, 1
 157              	AMux_1_lastChannel:
 158 0000 FF       		.byte	-1
 159              		.text
 160              	.Letext0:
 161              		.file 2 "c:\\program files (x86)\\cypress\\psoc creator\\4.4\\psoc creator\\import\\gnu\\arm\\5.4.
 162              		.file 3 "c:\\program files (x86)\\cypress\\psoc creator\\4.4\\psoc creator\\import\\gnu\\arm\\5.4.
 163              		.file 4 "Generated_Source\\PSoC6\\pdl\\drivers/peripheral/syslib/cy_syslib.h"
 164              		.file 5 "Generated_Source\\PSoC6\\cyfitter_cfg.h"