ARM GAS  C:\Users\43479\AppData\Local\Temp\ccVjJMSj.s 			page 1


   1              		.syntax unified
   2              		.cpu cortex-m4
   3              		.eabi_attribute 27, 1
   4              		.fpu fpv4-sp-d16
   5              		.eabi_attribute 20, 1
   6              		.eabi_attribute 21, 1
   7              		.eabi_attribute 23, 3
   8              		.eabi_attribute 24, 1
   9              		.eabi_attribute 25, 1
  10              		.eabi_attribute 26, 1
  11              		.eabi_attribute 30, 1
  12              		.eabi_attribute 34, 1
  13              		.eabi_attribute 18, 4
  14              		.thumb
  15              		.syntax unified
  16              		.file	"AMux_2.c"
  17              		.text
  18              	.Ltext0:
  19              		.cfi_sections	.debug_frame
  20              		.section	.text.AMux_2_Start,"ax",%progbits
  21              		.align	2
  22              		.global	AMux_2_Start
  23              		.thumb
  24              		.thumb_func
  25              		.type	AMux_2_Start, %function
  26              	AMux_2_Start:
  27              	.LFB125:
  28              		.file 1 "Generated_Source\\PSoC6\\AMux_2.c"
   1:Generated_Source\PSoC6/AMux_2.c **** /*******************************************************************************
   2:Generated_Source\PSoC6/AMux_2.c **** * File Name: AMux_2.c
   3:Generated_Source\PSoC6/AMux_2.c **** * Version 1.80
   4:Generated_Source\PSoC6/AMux_2.c **** *
   5:Generated_Source\PSoC6/AMux_2.c **** *  Description:
   6:Generated_Source\PSoC6/AMux_2.c **** *    This file contains all functions required for the analog multiplexer
   7:Generated_Source\PSoC6/AMux_2.c **** *    AMux User Module.
   8:Generated_Source\PSoC6/AMux_2.c **** *
   9:Generated_Source\PSoC6/AMux_2.c **** *   Note:
  10:Generated_Source\PSoC6/AMux_2.c **** *
  11:Generated_Source\PSoC6/AMux_2.c **** *******************************************************************************
  12:Generated_Source\PSoC6/AMux_2.c **** * Copyright 2008-2010, Cypress Semiconductor Corporation.  All rights reserved.
  13:Generated_Source\PSoC6/AMux_2.c **** * You may use this file only in accordance with the license, terms, conditions, 
  14:Generated_Source\PSoC6/AMux_2.c **** * disclaimers, and limitations in the end user license agreement accompanying 
  15:Generated_Source\PSoC6/AMux_2.c **** * the software package with which this file was provided.
  16:Generated_Source\PSoC6/AMux_2.c **** ********************************************************************************/
  17:Generated_Source\PSoC6/AMux_2.c **** 
  18:Generated_Source\PSoC6/AMux_2.c **** #include "AMux_2.h"
  19:Generated_Source\PSoC6/AMux_2.c **** 
  20:Generated_Source\PSoC6/AMux_2.c **** static uint8 AMux_2_lastChannel = AMux_2_NULL_CHANNEL;
  21:Generated_Source\PSoC6/AMux_2.c **** 
  22:Generated_Source\PSoC6/AMux_2.c **** 
  23:Generated_Source\PSoC6/AMux_2.c **** /*******************************************************************************
  24:Generated_Source\PSoC6/AMux_2.c **** * Function Name: AMux_2_Start
  25:Generated_Source\PSoC6/AMux_2.c **** ********************************************************************************
  26:Generated_Source\PSoC6/AMux_2.c **** * Summary:
  27:Generated_Source\PSoC6/AMux_2.c **** *  Disconnect all channels.
  28:Generated_Source\PSoC6/AMux_2.c **** *
  29:Generated_Source\PSoC6/AMux_2.c **** * Parameters:
ARM GAS  C:\Users\43479\AppData\Local\Temp\ccVjJMSj.s 			page 2


  30:Generated_Source\PSoC6/AMux_2.c **** *  void
  31:Generated_Source\PSoC6/AMux_2.c **** *
  32:Generated_Source\PSoC6/AMux_2.c **** * Return:
  33:Generated_Source\PSoC6/AMux_2.c **** *  void
  34:Generated_Source\PSoC6/AMux_2.c **** *
  35:Generated_Source\PSoC6/AMux_2.c **** *******************************************************************************/
  36:Generated_Source\PSoC6/AMux_2.c **** void AMux_2_Start(void) 
  37:Generated_Source\PSoC6/AMux_2.c **** {
  29              		.loc 1 37 0
  30              		.cfi_startproc
  31              		@ args = 0, pretend = 0, frame = 0
  32              		@ frame_needed = 0, uses_anonymous_args = 0
  33 0000 10B5     		push	{r4, lr}
  34              		.cfi_def_cfa_offset 8
  35              		.cfi_offset 4, -8
  36              		.cfi_offset 14, -4
  37              	.LVL0:
  38:Generated_Source\PSoC6/AMux_2.c ****     uint8 chan;
  39:Generated_Source\PSoC6/AMux_2.c **** 
  40:Generated_Source\PSoC6/AMux_2.c ****     for(chan = 0u; chan < AMux_2_CHANNELS ; chan++)
  38              		.loc 1 40 0
  39 0002 0024     		movs	r4, #0
  40 0004 04E0     		b	.L2
  41              	.LVL1:
  42              	.L3:
  41:Generated_Source\PSoC6/AMux_2.c ****     {
  42:Generated_Source\PSoC6/AMux_2.c **** #if (AMux_2_MUXTYPE == AMux_2_MUX_SINGLE)
  43:Generated_Source\PSoC6/AMux_2.c ****         AMux_2_Unset(chan);
  43              		.loc 1 43 0 discriminator 3
  44 0006 2046     		mov	r0, r4
  45 0008 FFF7FEFF 		bl	AMux_2_Unset
  46              	.LVL2:
  40:Generated_Source\PSoC6/AMux_2.c ****     {
  47              		.loc 1 40 0 discriminator 3
  48 000c 0134     		adds	r4, r4, #1
  49              	.LVL3:
  50 000e E4B2     		uxtb	r4, r4
  51              	.LVL4:
  52              	.L2:
  40:Generated_Source\PSoC6/AMux_2.c ****     {
  53              		.loc 1 40 0 is_stmt 0 discriminator 1
  54 0010 052C     		cmp	r4, #5
  55 0012 F8D9     		bls	.L3
  44:Generated_Source\PSoC6/AMux_2.c **** #else
  45:Generated_Source\PSoC6/AMux_2.c ****         AMux_2_CYAMUXSIDE_A_Unset(chan);
  46:Generated_Source\PSoC6/AMux_2.c ****         AMux_2_CYAMUXSIDE_B_Unset(chan);
  47:Generated_Source\PSoC6/AMux_2.c **** #endif
  48:Generated_Source\PSoC6/AMux_2.c ****     }
  49:Generated_Source\PSoC6/AMux_2.c **** 
  50:Generated_Source\PSoC6/AMux_2.c ****     AMux_2_lastChannel = AMux_2_NULL_CHANNEL;
  56              		.loc 1 50 0 is_stmt 1
  57 0014 FF22     		movs	r2, #255
  58 0016 014B     		ldr	r3, .L5
  59 0018 1A70     		strb	r2, [r3]
  60 001a 10BD     		pop	{r4, pc}
  61              	.LVL5:
  62              	.L6:
ARM GAS  C:\Users\43479\AppData\Local\Temp\ccVjJMSj.s 			page 3


  63              		.align	2
  64              	.L5:
  65 001c 00000000 		.word	.LANCHOR0
  66              		.cfi_endproc
  67              	.LFE125:
  68              		.size	AMux_2_Start, .-AMux_2_Start
  69              		.section	.text.AMux_2_Select,"ax",%progbits
  70              		.align	2
  71              		.global	AMux_2_Select
  72              		.thumb
  73              		.thumb_func
  74              		.type	AMux_2_Select, %function
  75              	AMux_2_Select:
  76              	.LFB126:
  51:Generated_Source\PSoC6/AMux_2.c **** }
  52:Generated_Source\PSoC6/AMux_2.c **** 
  53:Generated_Source\PSoC6/AMux_2.c **** 
  54:Generated_Source\PSoC6/AMux_2.c **** #if (!AMux_2_ATMOSTONE)
  55:Generated_Source\PSoC6/AMux_2.c **** /*******************************************************************************
  56:Generated_Source\PSoC6/AMux_2.c **** * Function Name: AMux_2_Select
  57:Generated_Source\PSoC6/AMux_2.c **** ********************************************************************************
  58:Generated_Source\PSoC6/AMux_2.c **** * Summary:
  59:Generated_Source\PSoC6/AMux_2.c **** *  This functions first disconnects all channels then connects the given
  60:Generated_Source\PSoC6/AMux_2.c **** *  channel.
  61:Generated_Source\PSoC6/AMux_2.c **** *
  62:Generated_Source\PSoC6/AMux_2.c **** * Parameters:
  63:Generated_Source\PSoC6/AMux_2.c **** *  channel:  The channel to connect to the common terminal.
  64:Generated_Source\PSoC6/AMux_2.c **** *
  65:Generated_Source\PSoC6/AMux_2.c **** * Return:
  66:Generated_Source\PSoC6/AMux_2.c **** *  void
  67:Generated_Source\PSoC6/AMux_2.c **** *
  68:Generated_Source\PSoC6/AMux_2.c **** *******************************************************************************/
  69:Generated_Source\PSoC6/AMux_2.c **** void AMux_2_Select(uint8 channel) 
  70:Generated_Source\PSoC6/AMux_2.c **** {
  77              		.loc 1 70 0
  78              		.cfi_startproc
  79              		@ args = 0, pretend = 0, frame = 0
  80              		@ frame_needed = 0, uses_anonymous_args = 0
  81              	.LVL6:
  82 0000 10B5     		push	{r4, lr}
  83              		.cfi_def_cfa_offset 8
  84              		.cfi_offset 4, -8
  85              		.cfi_offset 14, -4
  86 0002 0446     		mov	r4, r0
  71:Generated_Source\PSoC6/AMux_2.c ****     AMux_2_DisconnectAll();        /* Disconnect all previous connections */
  87              		.loc 1 71 0
  88 0004 FFF7FEFF 		bl	AMux_2_Start
  89              	.LVL7:
  72:Generated_Source\PSoC6/AMux_2.c ****     AMux_2_Connect(channel);       /* Make the given selection */
  90              		.loc 1 72 0
  91 0008 2046     		mov	r0, r4
  92 000a FFF7FEFF 		bl	AMux_2_Set
  93              	.LVL8:
  73:Generated_Source\PSoC6/AMux_2.c ****     AMux_2_lastChannel = channel;  /* Update last channel */
  94              		.loc 1 73 0
  95 000e 014B     		ldr	r3, .L9
  96 0010 1C70     		strb	r4, [r3]
ARM GAS  C:\Users\43479\AppData\Local\Temp\ccVjJMSj.s 			page 4


  97 0012 10BD     		pop	{r4, pc}
  98              	.L10:
  99              		.align	2
 100              	.L9:
 101 0014 00000000 		.word	.LANCHOR0
 102              		.cfi_endproc
 103              	.LFE126:
 104              		.size	AMux_2_Select, .-AMux_2_Select
 105              		.section	.text.AMux_2_FastSelect,"ax",%progbits
 106              		.align	2
 107              		.global	AMux_2_FastSelect
 108              		.thumb
 109              		.thumb_func
 110              		.type	AMux_2_FastSelect, %function
 111              	AMux_2_FastSelect:
 112              	.LFB127:
  74:Generated_Source\PSoC6/AMux_2.c **** }
  75:Generated_Source\PSoC6/AMux_2.c **** #endif
  76:Generated_Source\PSoC6/AMux_2.c **** 
  77:Generated_Source\PSoC6/AMux_2.c **** 
  78:Generated_Source\PSoC6/AMux_2.c **** /*******************************************************************************
  79:Generated_Source\PSoC6/AMux_2.c **** * Function Name: AMux_2_FastSelect
  80:Generated_Source\PSoC6/AMux_2.c **** ********************************************************************************
  81:Generated_Source\PSoC6/AMux_2.c **** * Summary:
  82:Generated_Source\PSoC6/AMux_2.c **** *  This function first disconnects the last connection made with FastSelect or
  83:Generated_Source\PSoC6/AMux_2.c **** *  Select, then connects the given channel. The FastSelect function is similar
  84:Generated_Source\PSoC6/AMux_2.c **** *  to the Select function, except it is faster since it only disconnects the
  85:Generated_Source\PSoC6/AMux_2.c **** *  last channel selected rather than all channels.
  86:Generated_Source\PSoC6/AMux_2.c **** *
  87:Generated_Source\PSoC6/AMux_2.c **** * Parameters:
  88:Generated_Source\PSoC6/AMux_2.c **** *  channel:  The channel to connect to the common terminal.
  89:Generated_Source\PSoC6/AMux_2.c **** *
  90:Generated_Source\PSoC6/AMux_2.c **** * Return:
  91:Generated_Source\PSoC6/AMux_2.c **** *  void
  92:Generated_Source\PSoC6/AMux_2.c **** *
  93:Generated_Source\PSoC6/AMux_2.c **** *******************************************************************************/
  94:Generated_Source\PSoC6/AMux_2.c **** void AMux_2_FastSelect(uint8 channel) 
  95:Generated_Source\PSoC6/AMux_2.c **** {
 113              		.loc 1 95 0
 114              		.cfi_startproc
 115              		@ args = 0, pretend = 0, frame = 0
 116              		@ frame_needed = 0, uses_anonymous_args = 0
 117              	.LVL9:
 118 0000 10B5     		push	{r4, lr}
 119              		.cfi_def_cfa_offset 8
 120              		.cfi_offset 4, -8
 121              		.cfi_offset 14, -4
 122 0002 0446     		mov	r4, r0
  96:Generated_Source\PSoC6/AMux_2.c ****     /* Disconnect the last valid channel */
  97:Generated_Source\PSoC6/AMux_2.c ****     if( AMux_2_lastChannel != AMux_2_NULL_CHANNEL)
 123              		.loc 1 97 0
 124 0004 054B     		ldr	r3, .L14
 125 0006 1878     		ldrb	r0, [r3]	@ zero_extendqisi2
 126              	.LVL10:
 127 0008 FF28     		cmp	r0, #255
 128 000a 01D0     		beq	.L12
  98:Generated_Source\PSoC6/AMux_2.c ****     {
ARM GAS  C:\Users\43479\AppData\Local\Temp\ccVjJMSj.s 			page 5


  99:Generated_Source\PSoC6/AMux_2.c ****         AMux_2_Disconnect(AMux_2_lastChannel);
 129              		.loc 1 99 0
 130 000c FFF7FEFF 		bl	AMux_2_Unset
 131              	.LVL11:
 132              	.L12:
 100:Generated_Source\PSoC6/AMux_2.c ****     }
 101:Generated_Source\PSoC6/AMux_2.c **** 
 102:Generated_Source\PSoC6/AMux_2.c ****     /* Make the new channel connection */
 103:Generated_Source\PSoC6/AMux_2.c **** #if (AMux_2_MUXTYPE == AMux_2_MUX_SINGLE)
 104:Generated_Source\PSoC6/AMux_2.c ****     AMux_2_Set(channel);
 133              		.loc 1 104 0
 134 0010 2046     		mov	r0, r4
 135 0012 FFF7FEFF 		bl	AMux_2_Set
 136              	.LVL12:
 105:Generated_Source\PSoC6/AMux_2.c **** #else
 106:Generated_Source\PSoC6/AMux_2.c ****     AMux_2_CYAMUXSIDE_A_Set(channel);
 107:Generated_Source\PSoC6/AMux_2.c ****     AMux_2_CYAMUXSIDE_B_Set(channel);
 108:Generated_Source\PSoC6/AMux_2.c **** #endif
 109:Generated_Source\PSoC6/AMux_2.c **** 
 110:Generated_Source\PSoC6/AMux_2.c **** 
 111:Generated_Source\PSoC6/AMux_2.c ****     AMux_2_lastChannel = channel;   /* Update last channel */
 137              		.loc 1 111 0
 138 0016 014B     		ldr	r3, .L14
 139 0018 1C70     		strb	r4, [r3]
 140 001a 10BD     		pop	{r4, pc}
 141              	.L15:
 142              		.align	2
 143              	.L14:
 144 001c 00000000 		.word	.LANCHOR0
 145              		.cfi_endproc
 146              	.LFE127:
 147              		.size	AMux_2_FastSelect, .-AMux_2_FastSelect
 148              		.data
 149              		.set	.LANCHOR0,. + 0
 150              		.type	AMux_2_lastChannel, %object
 151              		.size	AMux_2_lastChannel, 1
 152              	AMux_2_lastChannel:
 153 0000 FF       		.byte	-1
 154              		.text
 155              	.Letext0:
 156              		.file 2 "d:\\mysoftware\\cypress\\psoc creator\\4.4\\psoc creator\\import\\gnu\\arm\\5.4.1\\arm-no
 157              		.file 3 "d:\\mysoftware\\cypress\\psoc creator\\4.4\\psoc creator\\import\\gnu\\arm\\5.4.1\\arm-no
 158              		.file 4 "Generated_Source\\PSoC6\\pdl\\drivers/peripheral/syslib/cy_syslib.h"
 159              		.file 5 "Generated_Source\\PSoC6\\cyfitter_cfg.h"
 160              		.file 6 "Generated_Source\\PSoC6\\pdl\\cmsis/include/core_cm4.h"