ARM GAS  C:\Users\43479\AppData\Local\Temp\ccqwRonb.s 			page 1


   1              		.syntax unified
   2              		.cpu cortex-m4
   3              		.eabi_attribute 27, 1
   4              		.fpu fpv4-sp-d16
   5              		.eabi_attribute 20, 1
   6              		.eabi_attribute 21, 1
   7              		.eabi_attribute 23, 3
   8              		.eabi_attribute 24, 1
   9              		.eabi_attribute 25, 1
  10              		.eabi_attribute 26, 1
  11              		.eabi_attribute 30, 1
  12              		.eabi_attribute 34, 1
  13              		.eabi_attribute 18, 4
  14              		.thumb
  15              		.syntax unified
  16              		.file	"host_main.c"
  17              		.text
  18              	.Ltext0:
  19              		.cfi_sections	.debug_frame
  20              		.section	.text.TimerInterruptHandler,"ax",%progbits
  21              		.align	2
  22              		.global	TimerInterruptHandler
  23              		.thumb
  24              		.thumb_func
  25              		.type	TimerInterruptHandler, %function
  26              	TimerInterruptHandler:
  27              	.LFB761:
  28              		.file 1 "host_main.c"
   1:host_main.c   **** /******************************************************************************
   2:host_main.c   **** * File Name: host_main.c
   3:host_main.c   **** *
   4:host_main.c   **** * Version: 1.10
   5:host_main.c   **** *
   6:host_main.c   **** * Description: This is the source code for BLE GATT Server with custom 
   7:host_main.c   **** *              throughput service. The BLE sends notification data to the BLE
   8:host_main.c   **** *              GATT client device which is used by the client for BLE 
   9:host_main.c   **** *              throughput measurement. 
  10:host_main.c   **** *
  11:host_main.c   **** * Related Document: CE222046_Throughput_Measurement.pdf
  12:host_main.c   **** *
  13:host_main.c   **** * Hardware Dependency: See CE222046_Throughput_Measurement.pdf
  14:host_main.c   **** *
  15:host_main.c   **** *******************************************************************************
  16:host_main.c   **** * Copyright (2018), Cypress Semiconductor Corporation. All rights reserved.
  17:host_main.c   **** *******************************************************************************
  18:host_main.c   **** * This software, including source code, documentation and related materials
  19:host_main.c   **** * (“Software”), is owned by Cypress Semiconductor Corporation or one of its
  20:host_main.c   **** * subsidiaries (“Cypress”) and is protected by and subject to worldwide patent
  21:host_main.c   **** * protection (United States and foreign), United States copyright laws and
  22:host_main.c   **** * international treaty provisions. Therefore, you may use this Software only
  23:host_main.c   **** * as provided in the license agreement accompanying the software package from
  24:host_main.c   **** * which you obtained this Software (“EULA”).
  25:host_main.c   **** *
  26:host_main.c   **** * If no EULA applies, Cypress hereby grants you a personal, nonexclusive,
  27:host_main.c   **** * non-transferable license to copy, modify, and compile the Software source
  28:host_main.c   **** * code solely for use in connection with Cypress’s integrated circuit products.
  29:host_main.c   **** * Any reproduction, modification, translation, compilation, or representation
ARM GAS  C:\Users\43479\AppData\Local\Temp\ccqwRonb.s 			page 2


  30:host_main.c   **** * of this Software except as specified above is prohibited without the express
  31:host_main.c   **** * written permission of Cypress.
  32:host_main.c   **** *
  33:host_main.c   **** * Disclaimer: THIS SOFTWARE IS PROVIDED AS-IS, WITH NO WARRANTY OF ANY KIND, 
  34:host_main.c   **** * EXPRESS OR IMPLIED, INCLUDING, BUT NOT LIMITED TO, NONINFRINGEMENT, IMPLIED 
  35:host_main.c   **** * WARRANTIES OF MERCHANTABILITY AND FITNESS FOR A PARTICULAR PURPOSE. Cypress 
  36:host_main.c   **** * reserves the right to make changes to the Software without notice. Cypress 
  37:host_main.c   **** * does not assume any liability arising out of the application or use of the 
  38:host_main.c   **** * Software or any product or circuit described in the Software. Cypress does 
  39:host_main.c   **** * not authorize its products for use in any products where a malfunction or 
  40:host_main.c   **** * failure of the Cypress product may reasonably be expected to result in 
  41:host_main.c   **** * significant property damage, injury or death (“High Risk Product”). By 
  42:host_main.c   **** * including Cypress’s product in a High Risk Product, the manufacturer of such 
  43:host_main.c   **** * system or application assumes all risk of such use and in doing so agrees to 
  44:host_main.c   **** * indemnify Cypress against all liability.
  45:host_main.c   **** *******************************************************************************/
  46:host_main.c   **** 
  47:host_main.c   **** #include "project.h"
  48:host_main.c   **** #include "stdio_user.h"
  49:host_main.c   **** #include <stdio.h>
  50:host_main.c   **** #include "ledTask.h"
  51:host_main.c   **** #include <string.h>
  52:host_main.c   **** 
  53:host_main.c   **** 
  54:host_main.c   **** #if CY_BLE_HOST_CORE   
  55:host_main.c   **** /******************************************************************************
  56:host_main.c   **** * Macros
  57:host_main.c   **** *******************************************************************************/
  58:host_main.c   **** #define ENABLE      (1u)
  59:host_main.c   **** #define DISABLE     (0u)
  60:host_main.c   **** 
  61:host_main.c   **** #define DEBUG_BLE_ENABLE    DISABLE
  62:host_main.c   **** 
  63:host_main.c   **** #if DEBUG_BLE_ENABLE
  64:host_main.c   **** #define DEBUG_BLE       printf
  65:host_main.c   **** #else
  66:host_main.c   **** #define DEBUG_BLE(...)
  67:host_main.c   **** #endif
  68:host_main.c   **** 
  69:host_main.c   **** #define MAX_MTU_SIZE                (512)
  70:host_main.c   **** #define DEFAULT_MTU_SIZE            (23) 
  71:host_main.c   **** //#define NOTIFICATION_PKT_SIZE       (495)
  72:host_main.c   **** #define NOTIFICATION_PKT_SIZE       (20)
  73:host_main.c   **** #define SUCCESS                     (0u)
  74:host_main.c   **** #define TARGET_BDADDR       {{0xFF, 0xBB, 0xAA, 0x50, 0xA0, 0x00}, 0}
  75:host_main.c   **** #define CUSTOM_SERV0_CHAR0_DESC0_HANDLE     cy_ble_customConfig.customs[0]\
  76:host_main.c   ****                                         .customServInfo[0].customServCharDesc[0] 
  77:host_main.c   **** #define CUSTOM_SERV0_CHAR0_HANDLE           cy_ble_customConfig.customs[0]\
  78:host_main.c   ****                                         .customServInfo[0].customServCharHandle 
  79:host_main.c   **** 
  80:host_main.c   **** /*******************************************************************************
  81:host_main.c   **** * Variables
  82:host_main.c   **** *******************************************************************************/
  83:host_main.c   **** bool charNotificationEnabled = false;
  84:host_main.c   **** uint8 buffer[NOTIFICATION_PKT_SIZE], buffer2[NOTIFICATION_PKT_SIZE], buffer3[NOTIFICATION_PKT_SIZE]
  85:host_main.c   **** uint16 negotiatedMtu = DEFAULT_MTU_SIZE;
  86:host_main.c   **** cy_stc_ble_gap_bd_addr_t    local_addr = TARGET_BDADDR;
ARM GAS  C:\Users\43479\AppData\Local\Temp\ccqwRonb.s 			page 3


  87:host_main.c   **** cy_stc_ble_conn_handle_t appConnHandle;
  88:host_main.c   **** cy_stc_ble_gatts_handle_value_ntf_t notificationPacket, notificationPacket2, notificationPacket3;
  89:host_main.c   **** 
  90:host_main.c   **** uint8 send_flag = 1;
  91:host_main.c   **** bool dataUpdateReqest = true;
  92:host_main.c   **** float matrix[6][6];
  93:host_main.c   **** 
  94:host_main.c   **** /*******************************************************************************
  95:host_main.c   **** *        Function Prototypes
  96:host_main.c   **** *******************************************************************************/
  97:host_main.c   **** void Ble_Init(void);
  98:host_main.c   **** void StackEventHandler(uint32 event, void* eventParam);
  99:host_main.c   **** void SendNotification(void);
 100:host_main.c   **** void TimerInterruptHandler(void);
 101:host_main.c   **** void Timer_Config(void);
 102:host_main.c   **** 
 103:host_main.c   **** 
 104:host_main.c   **** 
 105:host_main.c   **** 
 106:host_main.c   **** 
 107:host_main.c   **** 
 108:host_main.c   **** 
 109:host_main.c   **** 
 110:host_main.c   **** 
 111:host_main.c   **** void float2string(float arr[6][6], char str[])
 112:host_main.c   **** {
 113:host_main.c   ****     int k=0, num=0;
 114:host_main.c   ****     for(int i=0; i<6; i++){
 115:host_main.c   ****         for(int j=0; j<6; j++){
 116:host_main.c   ****             num = (int)(-arr[i][j] * 100);
 117:host_main.c   ****             while(num > 0){
 118:host_main.c   ****                 str[k++]= (char)(num % 10);
 119:host_main.c   ****                 num = num /10;
 120:host_main.c   ****             }
 121:host_main.c   ****             
 122:host_main.c   ****         }
 123:host_main.c   ****     }
 124:host_main.c   **** }
 125:host_main.c   **** 
 126:host_main.c   **** 
 127:host_main.c   **** void pack2Buffer(char pack[108])
 128:host_main.c   **** {
 129:host_main.c   ****     int k=0;
 130:host_main.c   ****     buffer[0] = 85; 
 131:host_main.c   ****     buffer[1] = 81;
 132:host_main.c   ****     buffer2[0] = 85;
 133:host_main.c   ****     buffer2[1] = 82;
 134:host_main.c   ****     buffer3[0] = 85;
 135:host_main.c   ****     buffer3[1] = 83;
 136:host_main.c   **** 
 137:host_main.c   ****     for(uint8 i=2; i < 20; i++)
 138:host_main.c   ****     {
 139:host_main.c   ****         buffer[i] = (buffer[i]<<4) | pack[k]; 
 140:host_main.c   ****         buffer2[i] = (buffer2[i]<<4) | pack[k+18];
 141:host_main.c   ****         buffer3[i] = (buffer3[i]<<4) | pack[k+36];
 142:host_main.c   ****         k++;
 143:host_main.c   ****         buffer[i] = (buffer[i]<<4) | pack[k];
ARM GAS  C:\Users\43479\AppData\Local\Temp\ccqwRonb.s 			page 4


 144:host_main.c   ****         buffer2[i] = (buffer2[i]<<4) | pack[k+18]; 
 145:host_main.c   ****         buffer3[i] = (buffer3[i]<<4) | pack[k+36];
 146:host_main.c   ****         k++;
 147:host_main.c   ****     }
 148:host_main.c   **** }
 149:host_main.c   **** 
 150:host_main.c   **** 
 151:host_main.c   **** /*******************************************************************************
 152:host_main.c   **** * Function Name: HostMain()
 153:host_main.c   **** ********************************************************************************
 154:host_main.c   **** * Summary:
 155:host_main.c   **** *  Main function for the BLE Host.
 156:host_main.c   **** *
 157:host_main.c   **** * Parameters:
 158:host_main.c   **** *  None
 159:host_main.c   **** *
 160:host_main.c   **** * Return:
 161:host_main.c   **** *  None
 162:host_main.c   **** *
 163:host_main.c   **** * Theory:
 164:host_main.c   **** *  The function starts BLE and UART components.
 165:host_main.c   **** *  This function processes all BLE events
 166:host_main.c   **** *
 167:host_main.c   **** *******************************************************************************/
 168:host_main.c   **** int HostMain(void)
 169:host_main.c   **** {
 170:host_main.c   ****     __enable_irq(); /* Enable global interrupts. */
 171:host_main.c   ****     
 172:host_main.c   ****     UART_Start();
 173:host_main.c   ****     /* \x1b[2J\x1b[;H - ANSI ESC sequence for clear screen */
 174:host_main.c   ****     printf("\x1b[2J\x1b[;H");
 175:host_main.c   ****     
 176:host_main.c   ****     printf("*****************CE222046: PSoC 6 MCU BLE Throughput Measurement *******"\
 177:host_main.c   ****                "**********\r\n");
 178:host_main.c   ****     printf("Role : Server (GATT OUT)\r\n");
 179:host_main.c   ****     
 180:host_main.c   ****     printf("*****************************************************************"\
 181:host_main.c   ****                "*****************\r\n\n");
 182:host_main.c   ****     
 183:host_main.c   ****     setvbuf( stdin, NULL, _IONBF, 0 ); 
 184:host_main.c   ****     printf("Started\n");  
 185:host_main.c   ****     ADC_1_Start();
 186:host_main.c   ****     
 187:host_main.c   ****     AMux_1_Start();
 188:host_main.c   ****     AMux_2_Start();
 189:host_main.c   ****     WS_Start();   
 190:host_main.c   ****     Cy_SysTick_Init(CY_SYSTICK_CLOCK_SOURCE_CLK_IMO,8000);
 191:host_main.c   ****     Cy_SysTick_Enable();    
 192:host_main.c   ****     WS_DMATrigger();
 193:host_main.c   ****     Cy_SysTick_SetCallback(0,WS_SysTickHandler);
 194:host_main.c   ****     
 195:host_main.c   ****     
 196:host_main.c   ****     /* Initialize BLE */
 197:host_main.c   ****     Ble_Init();
 198:host_main.c   ****     
 199:host_main.c   ****     Timer_Start();
 200:host_main.c   ****     Timer_Config();
ARM GAS  C:\Users\43479\AppData\Local\Temp\ccqwRonb.s 			page 5


 201:host_main.c   ****     
 202:host_main.c   **** 
 203:host_main.c   **** 
 204:host_main.c   ****     
 205:host_main.c   ****     uint8_t R, G, B, base;
 206:host_main.c   ****     char str[108] = {0};
 207:host_main.c   ****     uint8 send_count = 0;
 208:host_main.c   ****         
 209:host_main.c   ****     for(;;)
 210:host_main.c   ****     {
 211:host_main.c   **** 
 212:host_main.c   **** 
 213:host_main.c   **** 
 214:host_main.c   ****         
 215:host_main.c   ****         /* Cy_Ble_ProcessEvents() allows BLE stack to process pending events */
 216:host_main.c   ****         Cy_BLE_ProcessEvents();
 217:host_main.c   ****         
 218:host_main.c   ****         if(charNotificationEnabled == true)
 219:host_main.c   ****         { 
 220:host_main.c   **** 
 221:host_main.c   ****             
 222:host_main.c   ****             float2string(matrix, str);
 223:host_main.c   ****             pack2Buffer(str);
 224:host_main.c   ****             
 225:host_main.c   ****             if(Cy_BLE_GATT_GetBusyStatus(appConnHandle.attId) ==\
 226:host_main.c   ****                CY_BLE_STACK_STATE_FREE)
 227:host_main.c   ****             {
 228:host_main.c   ****                 /* Send notification data to the GATT Client*/
 229:host_main.c   **** //                SendNotification();
 230:host_main.c   ****                 
 231:host_main.c   **** //                if(send_flag == 1)
 232:host_main.c   **** //                {
 233:host_main.c   **** //                    Cy_BLE_GATTS_Notification(&notificationPacket);
 234:host_main.c   **** //                    printf("1");
 235:host_main.c   **** //                    send_flag++;
 236:host_main.c   **** //                }
 237:host_main.c   **** //                else if(send_flag == 2)
 238:host_main.c   **** //                {
 239:host_main.c   **** //                    Cy_BLE_GATTS_Notification(&notificationPacket2);
 240:host_main.c   **** //                    printf("2");
 241:host_main.c   **** //                    send_flag++;
 242:host_main.c   **** //                }
 243:host_main.c   **** //                else
 244:host_main.c   **** //                {
 245:host_main.c   **** //                    Cy_BLE_GATTS_Notification(&notificationPacket3);
 246:host_main.c   **** //                    printf("3");
 247:host_main.c   **** //                    send_flag = 1;
 248:host_main.c   **** //                    charNotificationEnabled = false;
 249:host_main.c   **** //                    
 250:host_main.c   **** //                }
 251:host_main.c   ****                 Cy_GPIO_Write(Debug_PORT,Debug_NUM, 1);
 252:host_main.c   ****                 
 253:host_main.c   ****                 Cy_BLE_GATTS_Notification(&notificationPacket);
 254:host_main.c   ****                 Cy_BLE_GATTS_Notification(&notificationPacket2);
 255:host_main.c   ****                 Cy_BLE_GATTS_Notification(&notificationPacket3);
 256:host_main.c   ****                 charNotificationEnabled = false;
 257:host_main.c   ****                 
ARM GAS  C:\Users\43479\AppData\Local\Temp\ccqwRonb.s 			page 6


 258:host_main.c   ****                 Cy_GPIO_Write(Debug_PORT,Debug_NUM, 0);
 259:host_main.c   ****                 
 260:host_main.c   ****             }
 261:host_main.c   ****             
 262:host_main.c   ****         }
 263:host_main.c   **** 
 264:host_main.c   **** //        for(uint8 i = 0;i < 6;i++)
 265:host_main.c   **** //        {
 266:host_main.c   **** //                    
 267:host_main.c   **** //            for(uint8 j = 0; j < 6; j++)
 268:host_main.c   **** //            {
 269:host_main.c   **** ////                printf(" %.2fv\t", matrix[i][j]);
 270:host_main.c   **** //
 271:host_main.c   **** //                base = (uint8)((-matrix[i][j] + 3.0) / 3.0 * 256);
 272:host_main.c   **** ////                printf(" %d\t", base);
 273:host_main.c   **** //                B = base > 128 ? base - 50 : base ;
 274:host_main.c   **** //                G = base > 75 ? base - 30 : 0;
 275:host_main.c   **** //                R = base > 170 ? base : 0;
 276:host_main.c   **** //                WS_setRGB(i * 8 + j, R, G, B);
 277:host_main.c   **** //
 278:host_main.c   **** //                
 279:host_main.c   **** //            }
 280:host_main.c   **** ////            printf("\r\n");        
 281:host_main.c   **** //        }
 282:host_main.c   ****     }
 283:host_main.c   **** }
 284:host_main.c   **** 
 285:host_main.c   **** void Timer_Config(void)
 286:host_main.c   **** {
 287:host_main.c   ****     Cy_SysInt_Init(&isrTimer_cfg, TimerInterruptHandler);
 288:host_main.c   ****     NVIC_ClearPendingIRQ(isrTimer_cfg.intrSrc);/* Clears the interrupt */
 289:host_main.c   ****     NVIC_EnableIRQ(isrTimer_cfg.intrSrc); /* Enable the core interrupt */
 290:host_main.c   ****     __enable_irq(); /* Enable global interrupts. */
 291:host_main.c   ****     
 292:host_main.c   ****     /* Start the TCPWM component in timer/counter mode. The return value of the
 293:host_main.c   ****      * function indicates whether the arguments are valid or not. It is not used
 294:host_main.c   ****      * here for simplicity. */
 295:host_main.c   ****     (void)Cy_TCPWM_Counter_Init(Timer_HW, Timer_CNT_NUM, &Timer_config);
 296:host_main.c   ****     Cy_TCPWM_Enable_Multiple(Timer_HW, Timer_CNT_MASK); /* Enable the counter instance */
 297:host_main.c   ****     
 298:host_main.c   ****     /* Set the timer period in milliseconds. To count N cycles, period should be
 299:host_main.c   ****      * set to N-1. */
 300:host_main.c   ****     Cy_TCPWM_Counter_SetPeriod(Timer_HW, Timer_CNT_NUM, 1000 - 1);
 301:host_main.c   ****     
 302:host_main.c   ****     /* Trigger a software reload on the counter instance. This is required when 
 303:host_main.c   ****      * no other hardware input signal is connected to the component to act as
 304:host_main.c   ****      * a trigger source. */
 305:host_main.c   ****     Cy_TCPWM_TriggerReloadOrIndex(Timer_HW, Timer_CNT_MASK); 
 306:host_main.c   **** }
 307:host_main.c   **** 
 308:host_main.c   **** /*******************************************************************************
 309:host_main.c   **** * Function Name: TimerInterruptHandler
 310:host_main.c   **** ********************************************************************************
 311:host_main.c   **** *
 312:host_main.c   **** * Summary: Handler function for the timer interrupt that simply toggles the LED.
 313:host_main.c   **** *
 314:host_main.c   **** * Parameters:
ARM GAS  C:\Users\43479\AppData\Local\Temp\ccqwRonb.s 			page 7


 315:host_main.c   **** *  None
 316:host_main.c   **** *
 317:host_main.c   **** * Return:
 318:host_main.c   **** *  None
 319:host_main.c   **** *
 320:host_main.c   **** * Side Effects:
 321:host_main.c   **** *  None  
 322:host_main.c   **** *
 323:host_main.c   **** *******************************************************************************/
 324:host_main.c   **** 
 325:host_main.c   **** void TimerInterruptHandler(void)
 326:host_main.c   **** {
  29              		.loc 1 326 0
  30              		.cfi_startproc
  31              		@ args = 0, pretend = 0, frame = 0
  32              		@ frame_needed = 0, uses_anonymous_args = 0
  33 0000 2DE9F041 		push	{r4, r5, r6, r7, r8, lr}
  34              		.cfi_def_cfa_offset 24
  35              		.cfi_offset 4, -24
  36              		.cfi_offset 5, -20
  37              		.cfi_offset 6, -16
  38              		.cfi_offset 7, -12
  39              		.cfi_offset 8, -8
  40              		.cfi_offset 14, -4
  41              	.LVL0:
  42              	.LBB60:
  43              	.LBB61:
  44              		.file 2 "Generated_Source\\PSoC6\\pdl\\drivers/peripheral/tcpwm/cy_tcpwm.h"
   1:Generated_Source\PSoC6\pdl\drivers/peripheral/tcpwm/cy_tcpwm.h **** /***************************************************************************//**
   2:Generated_Source\PSoC6\pdl\drivers/peripheral/tcpwm/cy_tcpwm.h **** * \file cy_tcpwm.h
   3:Generated_Source\PSoC6\pdl\drivers/peripheral/tcpwm/cy_tcpwm.h **** * \version 1.0.1
   4:Generated_Source\PSoC6\pdl\drivers/peripheral/tcpwm/cy_tcpwm.h **** *
   5:Generated_Source\PSoC6\pdl\drivers/peripheral/tcpwm/cy_tcpwm.h **** * The header file of the TCPWM driver.
   6:Generated_Source\PSoC6\pdl\drivers/peripheral/tcpwm/cy_tcpwm.h **** *
   7:Generated_Source\PSoC6\pdl\drivers/peripheral/tcpwm/cy_tcpwm.h **** ********************************************************************************
   8:Generated_Source\PSoC6\pdl\drivers/peripheral/tcpwm/cy_tcpwm.h **** * \copyright
   9:Generated_Source\PSoC6\pdl\drivers/peripheral/tcpwm/cy_tcpwm.h **** * Copyright 2016-2018, Cypress Semiconductor Corporation. All rights reserved.
  10:Generated_Source\PSoC6\pdl\drivers/peripheral/tcpwm/cy_tcpwm.h **** * You may use this file only in accordance with the license, terms, conditions,
  11:Generated_Source\PSoC6\pdl\drivers/peripheral/tcpwm/cy_tcpwm.h **** * disclaimers, and limitations in the end user license agreement accompanying
  12:Generated_Source\PSoC6\pdl\drivers/peripheral/tcpwm/cy_tcpwm.h **** * the software package with which this file was provided.
  13:Generated_Source\PSoC6\pdl\drivers/peripheral/tcpwm/cy_tcpwm.h **** *******************************************************************************/
  14:Generated_Source\PSoC6\pdl\drivers/peripheral/tcpwm/cy_tcpwm.h **** 
  15:Generated_Source\PSoC6\pdl\drivers/peripheral/tcpwm/cy_tcpwm.h **** /**
  16:Generated_Source\PSoC6\pdl\drivers/peripheral/tcpwm/cy_tcpwm.h **** * \defgroup group_tcpwm Timer Counter PWM (TCPWM)
  17:Generated_Source\PSoC6\pdl\drivers/peripheral/tcpwm/cy_tcpwm.h **** * \{
  18:Generated_Source\PSoC6\pdl\drivers/peripheral/tcpwm/cy_tcpwm.h **** * \defgroup group_tcpwm_common  Common
  19:Generated_Source\PSoC6\pdl\drivers/peripheral/tcpwm/cy_tcpwm.h **** * \defgroup group_tcpwm_counter Timer/Counter (TCPWM)
  20:Generated_Source\PSoC6\pdl\drivers/peripheral/tcpwm/cy_tcpwm.h **** * \defgroup group_tcpwm_pwm     PWM (TCPWM)
  21:Generated_Source\PSoC6\pdl\drivers/peripheral/tcpwm/cy_tcpwm.h **** * \defgroup group_tcpwm_quaddec Quadrature Decoder (TCPWM)
  22:Generated_Source\PSoC6\pdl\drivers/peripheral/tcpwm/cy_tcpwm.h **** * \} */
  23:Generated_Source\PSoC6\pdl\drivers/peripheral/tcpwm/cy_tcpwm.h **** 
  24:Generated_Source\PSoC6\pdl\drivers/peripheral/tcpwm/cy_tcpwm.h **** /**
  25:Generated_Source\PSoC6\pdl\drivers/peripheral/tcpwm/cy_tcpwm.h **** * \addtogroup group_tcpwm
  26:Generated_Source\PSoC6\pdl\drivers/peripheral/tcpwm/cy_tcpwm.h **** * \{
  27:Generated_Source\PSoC6\pdl\drivers/peripheral/tcpwm/cy_tcpwm.h **** * 
  28:Generated_Source\PSoC6\pdl\drivers/peripheral/tcpwm/cy_tcpwm.h **** * The TCPWM driver is a multifunction driver that implements Timer Counter, 
  29:Generated_Source\PSoC6\pdl\drivers/peripheral/tcpwm/cy_tcpwm.h **** * PWM, and Quadrature Decoder functionality using the TCPWM block.
ARM GAS  C:\Users\43479\AppData\Local\Temp\ccqwRonb.s 			page 8


  30:Generated_Source\PSoC6\pdl\drivers/peripheral/tcpwm/cy_tcpwm.h **** *
  31:Generated_Source\PSoC6\pdl\drivers/peripheral/tcpwm/cy_tcpwm.h **** * Each TCPWM block is a collection of counters that can all be triggered 
  32:Generated_Source\PSoC6\pdl\drivers/peripheral/tcpwm/cy_tcpwm.h **** * simultaneously. For each function call, the base register address of 
  33:Generated_Source\PSoC6\pdl\drivers/peripheral/tcpwm/cy_tcpwm.h **** * the TCPWM being used must be passed first, followed by the index of 
  34:Generated_Source\PSoC6\pdl\drivers/peripheral/tcpwm/cy_tcpwm.h **** * the counter you want to touch next. 
  35:Generated_Source\PSoC6\pdl\drivers/peripheral/tcpwm/cy_tcpwm.h **** * For some functions, you can manage multiple counters simultaneously. You 
  36:Generated_Source\PSoC6\pdl\drivers/peripheral/tcpwm/cy_tcpwm.h **** * provide a bit field representing each counter, rather than the single counter 
  37:Generated_Source\PSoC6\pdl\drivers/peripheral/tcpwm/cy_tcpwm.h **** * index). 
  38:Generated_Source\PSoC6\pdl\drivers/peripheral/tcpwm/cy_tcpwm.h **** *
  39:Generated_Source\PSoC6\pdl\drivers/peripheral/tcpwm/cy_tcpwm.h **** * The TCPWM supports three operating modes:
  40:Generated_Source\PSoC6\pdl\drivers/peripheral/tcpwm/cy_tcpwm.h **** * * Timer/Counter
  41:Generated_Source\PSoC6\pdl\drivers/peripheral/tcpwm/cy_tcpwm.h **** * * PWM
  42:Generated_Source\PSoC6\pdl\drivers/peripheral/tcpwm/cy_tcpwm.h **** * * Quadrature Decoder
  43:Generated_Source\PSoC6\pdl\drivers/peripheral/tcpwm/cy_tcpwm.h **** *
  44:Generated_Source\PSoC6\pdl\drivers/peripheral/tcpwm/cy_tcpwm.h **** * \n
  45:Generated_Source\PSoC6\pdl\drivers/peripheral/tcpwm/cy_tcpwm.h **** * \b Timer/Counter
  46:Generated_Source\PSoC6\pdl\drivers/peripheral/tcpwm/cy_tcpwm.h **** *
  47:Generated_Source\PSoC6\pdl\drivers/peripheral/tcpwm/cy_tcpwm.h **** * Use this mode whenever a specific timing interval or measurement is 
  48:Generated_Source\PSoC6\pdl\drivers/peripheral/tcpwm/cy_tcpwm.h **** * needed. Examples include:
  49:Generated_Source\PSoC6\pdl\drivers/peripheral/tcpwm/cy_tcpwm.h **** * * Creating a periodic interrupt for running other system tasks
  50:Generated_Source\PSoC6\pdl\drivers/peripheral/tcpwm/cy_tcpwm.h **** * * Measuring frequency of an input signal
  51:Generated_Source\PSoC6\pdl\drivers/peripheral/tcpwm/cy_tcpwm.h **** * * Measuring pulse width of an input signal
  52:Generated_Source\PSoC6\pdl\drivers/peripheral/tcpwm/cy_tcpwm.h **** * * Measuring time between two external events
  53:Generated_Source\PSoC6\pdl\drivers/peripheral/tcpwm/cy_tcpwm.h **** * * Counting events
  54:Generated_Source\PSoC6\pdl\drivers/peripheral/tcpwm/cy_tcpwm.h **** * * Triggering other system resources after x number events
  55:Generated_Source\PSoC6\pdl\drivers/peripheral/tcpwm/cy_tcpwm.h **** * * Capturing time stamps when events occur
  56:Generated_Source\PSoC6\pdl\drivers/peripheral/tcpwm/cy_tcpwm.h **** *
  57:Generated_Source\PSoC6\pdl\drivers/peripheral/tcpwm/cy_tcpwm.h **** * The Timer/Counter has the following features:
  58:Generated_Source\PSoC6\pdl\drivers/peripheral/tcpwm/cy_tcpwm.h **** * * 16- or 32-bit Timer/Counter
  59:Generated_Source\PSoC6\pdl\drivers/peripheral/tcpwm/cy_tcpwm.h **** * * Programmable Period Register
  60:Generated_Source\PSoC6\pdl\drivers/peripheral/tcpwm/cy_tcpwm.h **** * * Programmable Compare Register. Compare value can be swapped with a 
  61:Generated_Source\PSoC6\pdl\drivers/peripheral/tcpwm/cy_tcpwm.h **** * buffered compare value on comparison event
  62:Generated_Source\PSoC6\pdl\drivers/peripheral/tcpwm/cy_tcpwm.h **** * * Capture with buffer register
  63:Generated_Source\PSoC6\pdl\drivers/peripheral/tcpwm/cy_tcpwm.h **** * * Count Up, Count Down, or Count Up and Down Counting modes
  64:Generated_Source\PSoC6\pdl\drivers/peripheral/tcpwm/cy_tcpwm.h **** * * Continuous or One Shot Run modes
  65:Generated_Source\PSoC6\pdl\drivers/peripheral/tcpwm/cy_tcpwm.h **** * * Interrupt and Output on Overflow, Underflow, Capture, or Compare 
  66:Generated_Source\PSoC6\pdl\drivers/peripheral/tcpwm/cy_tcpwm.h **** * * Start, Reload, Stop, Capture, and Count Inputs
  67:Generated_Source\PSoC6\pdl\drivers/peripheral/tcpwm/cy_tcpwm.h **** *
  68:Generated_Source\PSoC6\pdl\drivers/peripheral/tcpwm/cy_tcpwm.h **** * \n
  69:Generated_Source\PSoC6\pdl\drivers/peripheral/tcpwm/cy_tcpwm.h **** * \b PWM
  70:Generated_Source\PSoC6\pdl\drivers/peripheral/tcpwm/cy_tcpwm.h **** *
  71:Generated_Source\PSoC6\pdl\drivers/peripheral/tcpwm/cy_tcpwm.h **** * Use this mode when an output square wave is needed with a specific 
  72:Generated_Source\PSoC6\pdl\drivers/peripheral/tcpwm/cy_tcpwm.h **** * period and duty cycle, such as:
  73:Generated_Source\PSoC6\pdl\drivers/peripheral/tcpwm/cy_tcpwm.h **** * * Creating arbitrary square wave outputs
  74:Generated_Source\PSoC6\pdl\drivers/peripheral/tcpwm/cy_tcpwm.h **** * * Driving an LED (changing the brightness)
  75:Generated_Source\PSoC6\pdl\drivers/peripheral/tcpwm/cy_tcpwm.h **** * * Driving Motors (dead time assertion available)
  76:Generated_Source\PSoC6\pdl\drivers/peripheral/tcpwm/cy_tcpwm.h **** *
  77:Generated_Source\PSoC6\pdl\drivers/peripheral/tcpwm/cy_tcpwm.h **** * The PWM has the following features:
  78:Generated_Source\PSoC6\pdl\drivers/peripheral/tcpwm/cy_tcpwm.h **** * * 16- or 32-bit Counter
  79:Generated_Source\PSoC6\pdl\drivers/peripheral/tcpwm/cy_tcpwm.h **** * * Two Programmable Period registers that can be swapped
  80:Generated_Source\PSoC6\pdl\drivers/peripheral/tcpwm/cy_tcpwm.h **** * * Two Output Compare registers that can be swapped on overflow and/or 
  81:Generated_Source\PSoC6\pdl\drivers/peripheral/tcpwm/cy_tcpwm.h **** * underflow
  82:Generated_Source\PSoC6\pdl\drivers/peripheral/tcpwm/cy_tcpwm.h **** * * Left Aligned, Right Aligned, Center Aligned, and Asymmetric Aligned modes
  83:Generated_Source\PSoC6\pdl\drivers/peripheral/tcpwm/cy_tcpwm.h **** * * Continuous or One Shot run modes
  84:Generated_Source\PSoC6\pdl\drivers/peripheral/tcpwm/cy_tcpwm.h **** * * Pseudo Random mode
  85:Generated_Source\PSoC6\pdl\drivers/peripheral/tcpwm/cy_tcpwm.h **** * * Two PWM outputs with Dead Time insertion, and programmable polarity
  86:Generated_Source\PSoC6\pdl\drivers/peripheral/tcpwm/cy_tcpwm.h **** * * Interrupt and Output on Overflow, Underflow, or Compare 
ARM GAS  C:\Users\43479\AppData\Local\Temp\ccqwRonb.s 			page 9


  87:Generated_Source\PSoC6\pdl\drivers/peripheral/tcpwm/cy_tcpwm.h **** * * Start, Reload, Stop, Swap (Capture), and Count Inputs
  88:Generated_Source\PSoC6\pdl\drivers/peripheral/tcpwm/cy_tcpwm.h **** * * Multiple Components can be synchronized together for applications 
  89:Generated_Source\PSoC6\pdl\drivers/peripheral/tcpwm/cy_tcpwm.h **** * such as three phase motor control
  90:Generated_Source\PSoC6\pdl\drivers/peripheral/tcpwm/cy_tcpwm.h **** *
  91:Generated_Source\PSoC6\pdl\drivers/peripheral/tcpwm/cy_tcpwm.h **** * \n
  92:Generated_Source\PSoC6\pdl\drivers/peripheral/tcpwm/cy_tcpwm.h **** * \b Quadrature \b Decoder
  93:Generated_Source\PSoC6\pdl\drivers/peripheral/tcpwm/cy_tcpwm.h **** *
  94:Generated_Source\PSoC6\pdl\drivers/peripheral/tcpwm/cy_tcpwm.h **** * A quadrature decoder is used to decode the output of a quadrature encoder. 
  95:Generated_Source\PSoC6\pdl\drivers/peripheral/tcpwm/cy_tcpwm.h **** * A quadrature encoder senses the position, velocity, and direction of 
  96:Generated_Source\PSoC6\pdl\drivers/peripheral/tcpwm/cy_tcpwm.h **** * an object (for example a rotating axle, or a spinning mouse ball). 
  97:Generated_Source\PSoC6\pdl\drivers/peripheral/tcpwm/cy_tcpwm.h **** * A quadrature decoder can also be used for precision measurement of speed, 
  98:Generated_Source\PSoC6\pdl\drivers/peripheral/tcpwm/cy_tcpwm.h **** * acceleration, and position of a motor's rotor, or with a rotary switch to 
  99:Generated_Source\PSoC6\pdl\drivers/peripheral/tcpwm/cy_tcpwm.h **** * determine user input. \n
 100:Generated_Source\PSoC6\pdl\drivers/peripheral/tcpwm/cy_tcpwm.h **** * 
 101:Generated_Source\PSoC6\pdl\drivers/peripheral/tcpwm/cy_tcpwm.h **** * The Quadrature Decoder has the following features:
 102:Generated_Source\PSoC6\pdl\drivers/peripheral/tcpwm/cy_tcpwm.h **** * * 16- or 32-bit Counter
 103:Generated_Source\PSoC6\pdl\drivers/peripheral/tcpwm/cy_tcpwm.h **** * * Counter Resolution of x1, x2, and x4 the frequency of the phiA (Count) and 
 104:Generated_Source\PSoC6\pdl\drivers/peripheral/tcpwm/cy_tcpwm.h **** * phiB (Start) inputs
 105:Generated_Source\PSoC6\pdl\drivers/peripheral/tcpwm/cy_tcpwm.h **** * * Index Input to determine absolute position
 106:Generated_Source\PSoC6\pdl\drivers/peripheral/tcpwm/cy_tcpwm.h **** * * A positive edge on phiA increments the counter when phiB is 0 and decrements
 107:Generated_Source\PSoC6\pdl\drivers/peripheral/tcpwm/cy_tcpwm.h **** * the counter when phiB is 1
 108:Generated_Source\PSoC6\pdl\drivers/peripheral/tcpwm/cy_tcpwm.h **** *
 109:Generated_Source\PSoC6\pdl\drivers/peripheral/tcpwm/cy_tcpwm.h **** * \section group_tcpwm_configuration Configuration Considerations
 110:Generated_Source\PSoC6\pdl\drivers/peripheral/tcpwm/cy_tcpwm.h **** *
 111:Generated_Source\PSoC6\pdl\drivers/peripheral/tcpwm/cy_tcpwm.h **** * For each mode, the TCPWM driver has a configuration structure, an Init 
 112:Generated_Source\PSoC6\pdl\drivers/peripheral/tcpwm/cy_tcpwm.h **** * function, and an Enable function. 
 113:Generated_Source\PSoC6\pdl\drivers/peripheral/tcpwm/cy_tcpwm.h **** *
 114:Generated_Source\PSoC6\pdl\drivers/peripheral/tcpwm/cy_tcpwm.h **** * Provide the configuration parameters in the appropriate structure (see
 115:Generated_Source\PSoC6\pdl\drivers/peripheral/tcpwm/cy_tcpwm.h **** * Counter \ref group_tcpwm_data_structures_counter, PWM 
 116:Generated_Source\PSoC6\pdl\drivers/peripheral/tcpwm/cy_tcpwm.h **** * \ref group_tcpwm_data_structures_pwm, or QuadDec 
 117:Generated_Source\PSoC6\pdl\drivers/peripheral/tcpwm/cy_tcpwm.h **** * \ref group_tcpwm_data_structures_quaddec). 
 118:Generated_Source\PSoC6\pdl\drivers/peripheral/tcpwm/cy_tcpwm.h **** * Then call the appropriate Init function: 
 119:Generated_Source\PSoC6\pdl\drivers/peripheral/tcpwm/cy_tcpwm.h **** * \ref Cy_TCPWM_Counter_Init, \ref Cy_TCPWM_PWM_Init, or 
 120:Generated_Source\PSoC6\pdl\drivers/peripheral/tcpwm/cy_tcpwm.h **** * \ref Cy_TCPWM_QuadDec_Init. Provide the address of the filled structure as a 
 121:Generated_Source\PSoC6\pdl\drivers/peripheral/tcpwm/cy_tcpwm.h **** * parameter. To enable the counter, call the appropriate Enable function: 
 122:Generated_Source\PSoC6\pdl\drivers/peripheral/tcpwm/cy_tcpwm.h **** * \ref Cy_TCPWM_Counter_Enable, \ref Cy_TCPWM_PWM_Enable, or 
 123:Generated_Source\PSoC6\pdl\drivers/peripheral/tcpwm/cy_tcpwm.h **** * \ref Cy_TCPWM_QuadDec_Enable).
 124:Generated_Source\PSoC6\pdl\drivers/peripheral/tcpwm/cy_tcpwm.h **** *
 125:Generated_Source\PSoC6\pdl\drivers/peripheral/tcpwm/cy_tcpwm.h **** * Many functions work with an individual counter. You can also manage multiple 
 126:Generated_Source\PSoC6\pdl\drivers/peripheral/tcpwm/cy_tcpwm.h **** * counters simultaneously for certain functions. These are listed in the 
 127:Generated_Source\PSoC6\pdl\drivers/peripheral/tcpwm/cy_tcpwm.h **** * \ref group_tcpwm_functions_common 
 128:Generated_Source\PSoC6\pdl\drivers/peripheral/tcpwm/cy_tcpwm.h **** * section of the TCPWM. You can enable, disable, or trigger (in various ways) 
 129:Generated_Source\PSoC6\pdl\drivers/peripheral/tcpwm/cy_tcpwm.h **** * multiple counters simultaneously. For these functions you provide a bit field 
 130:Generated_Source\PSoC6\pdl\drivers/peripheral/tcpwm/cy_tcpwm.h **** * representing each counter in the TCPWM you want to control. You can 
 131:Generated_Source\PSoC6\pdl\drivers/peripheral/tcpwm/cy_tcpwm.h **** * represent the bit field as an ORed mask of each counter, like 
 132:Generated_Source\PSoC6\pdl\drivers/peripheral/tcpwm/cy_tcpwm.h **** * ((1U << cntNumX) | (1U << cntNumX) | (1U << cntNumX)), where X is the counter 
 133:Generated_Source\PSoC6\pdl\drivers/peripheral/tcpwm/cy_tcpwm.h **** * number from 0 to 31.
 134:Generated_Source\PSoC6\pdl\drivers/peripheral/tcpwm/cy_tcpwm.h **** *
 135:Generated_Source\PSoC6\pdl\drivers/peripheral/tcpwm/cy_tcpwm.h **** * \note
 136:Generated_Source\PSoC6\pdl\drivers/peripheral/tcpwm/cy_tcpwm.h **** * * If none of the input terminals (start, reload(index)) are used, the 
 137:Generated_Source\PSoC6\pdl\drivers/peripheral/tcpwm/cy_tcpwm.h **** * software event \ref Cy_TCPWM_TriggerStart or 
 138:Generated_Source\PSoC6\pdl\drivers/peripheral/tcpwm/cy_tcpwm.h **** * \ref Cy_TCPWM_TriggerReloadOrIndex must be called to start the counting.
 139:Generated_Source\PSoC6\pdl\drivers/peripheral/tcpwm/cy_tcpwm.h **** * * If count input terminal is not used, the \ref CY_TCPWM_INPUT_LEVEL macro 
 140:Generated_Source\PSoC6\pdl\drivers/peripheral/tcpwm/cy_tcpwm.h **** * should be set for the countInputMode parameter and the \ref CY_TCPWM_INPUT_1 
 141:Generated_Source\PSoC6\pdl\drivers/peripheral/tcpwm/cy_tcpwm.h **** * macro should be set for the countInputMode parameter in the configuration 
 142:Generated_Source\PSoC6\pdl\drivers/peripheral/tcpwm/cy_tcpwm.h **** * structure of the appropriate mode(Counter 
 143:Generated_Source\PSoC6\pdl\drivers/peripheral/tcpwm/cy_tcpwm.h **** * \ref group_tcpwm_data_structures_counter, PWM 
ARM GAS  C:\Users\43479\AppData\Local\Temp\ccqwRonb.s 			page 10


 144:Generated_Source\PSoC6\pdl\drivers/peripheral/tcpwm/cy_tcpwm.h **** * \ref group_tcpwm_data_structures_pwm, or QuadDec 
 145:Generated_Source\PSoC6\pdl\drivers/peripheral/tcpwm/cy_tcpwm.h **** * \ref group_tcpwm_data_structures_quaddec).
 146:Generated_Source\PSoC6\pdl\drivers/peripheral/tcpwm/cy_tcpwm.h **** *
 147:Generated_Source\PSoC6\pdl\drivers/peripheral/tcpwm/cy_tcpwm.h **** * \section group_tcpwm_more_information More Information
 148:Generated_Source\PSoC6\pdl\drivers/peripheral/tcpwm/cy_tcpwm.h **** *
 149:Generated_Source\PSoC6\pdl\drivers/peripheral/tcpwm/cy_tcpwm.h **** * For more information on the TCPWM peripheral, refer to the technical 
 150:Generated_Source\PSoC6\pdl\drivers/peripheral/tcpwm/cy_tcpwm.h **** * reference manual (TRM).
 151:Generated_Source\PSoC6\pdl\drivers/peripheral/tcpwm/cy_tcpwm.h **** *
 152:Generated_Source\PSoC6\pdl\drivers/peripheral/tcpwm/cy_tcpwm.h **** * \section group_tcpwm_MISRA MISRA-C Compliance 
 153:Generated_Source\PSoC6\pdl\drivers/peripheral/tcpwm/cy_tcpwm.h **** * <table class="doxtable">
 154:Generated_Source\PSoC6\pdl\drivers/peripheral/tcpwm/cy_tcpwm.h **** *   <tr>
 155:Generated_Source\PSoC6\pdl\drivers/peripheral/tcpwm/cy_tcpwm.h **** *     <th>MISRA Rule</th>
 156:Generated_Source\PSoC6\pdl\drivers/peripheral/tcpwm/cy_tcpwm.h **** *     <th>Rule Class (Required/Advisory)</th>
 157:Generated_Source\PSoC6\pdl\drivers/peripheral/tcpwm/cy_tcpwm.h **** *     <th>Rule Description</th>
 158:Generated_Source\PSoC6\pdl\drivers/peripheral/tcpwm/cy_tcpwm.h **** *     <th>Description of Deviation(s)</th>
 159:Generated_Source\PSoC6\pdl\drivers/peripheral/tcpwm/cy_tcpwm.h **** *   </tr>
 160:Generated_Source\PSoC6\pdl\drivers/peripheral/tcpwm/cy_tcpwm.h **** *   <tr>
 161:Generated_Source\PSoC6\pdl\drivers/peripheral/tcpwm/cy_tcpwm.h **** *     <td>14.2</td>
 162:Generated_Source\PSoC6\pdl\drivers/peripheral/tcpwm/cy_tcpwm.h **** *     <td>R</td>
 163:Generated_Source\PSoC6\pdl\drivers/peripheral/tcpwm/cy_tcpwm.h **** *     <td>All non-null statements shall either: a) have at least one side-effect
 164:Generated_Source\PSoC6\pdl\drivers/peripheral/tcpwm/cy_tcpwm.h **** *         however executed, or b) cause control flow to change.</td>
 165:Generated_Source\PSoC6\pdl\drivers/peripheral/tcpwm/cy_tcpwm.h **** *     <td>The unused function parameters are cast to void. This statement
 166:Generated_Source\PSoC6\pdl\drivers/peripheral/tcpwm/cy_tcpwm.h **** *         has no side-effect and is used to suppress a compiler warning.</td>
 167:Generated_Source\PSoC6\pdl\drivers/peripheral/tcpwm/cy_tcpwm.h **** *   </tr>
 168:Generated_Source\PSoC6\pdl\drivers/peripheral/tcpwm/cy_tcpwm.h **** * </table>
 169:Generated_Source\PSoC6\pdl\drivers/peripheral/tcpwm/cy_tcpwm.h **** *
 170:Generated_Source\PSoC6\pdl\drivers/peripheral/tcpwm/cy_tcpwm.h **** * \section group_tcpwm_changelog Changelog
 171:Generated_Source\PSoC6\pdl\drivers/peripheral/tcpwm/cy_tcpwm.h **** * <table class="doxtable">
 172:Generated_Source\PSoC6\pdl\drivers/peripheral/tcpwm/cy_tcpwm.h **** *   <tr><th>Version</th><th>Changes</th><th>Reason for Change</th></tr>
 173:Generated_Source\PSoC6\pdl\drivers/peripheral/tcpwm/cy_tcpwm.h **** *   <tr>
 174:Generated_Source\PSoC6\pdl\drivers/peripheral/tcpwm/cy_tcpwm.h **** *     <td>1.0.1</td>
 175:Generated_Source\PSoC6\pdl\drivers/peripheral/tcpwm/cy_tcpwm.h **** *     <td>Added a deviation to the MISRA Compliance section.
 176:Generated_Source\PSoC6\pdl\drivers/peripheral/tcpwm/cy_tcpwm.h **** *         Added function-level code snippets.</td>
 177:Generated_Source\PSoC6\pdl\drivers/peripheral/tcpwm/cy_tcpwm.h **** *     <td>Documentation update and clarification</td>
 178:Generated_Source\PSoC6\pdl\drivers/peripheral/tcpwm/cy_tcpwm.h **** *   </tr>
 179:Generated_Source\PSoC6\pdl\drivers/peripheral/tcpwm/cy_tcpwm.h **** *   <tr>
 180:Generated_Source\PSoC6\pdl\drivers/peripheral/tcpwm/cy_tcpwm.h **** *     <td>1.0</td>
 181:Generated_Source\PSoC6\pdl\drivers/peripheral/tcpwm/cy_tcpwm.h **** *     <td>Initial version</td>
 182:Generated_Source\PSoC6\pdl\drivers/peripheral/tcpwm/cy_tcpwm.h **** *     <td></td>
 183:Generated_Source\PSoC6\pdl\drivers/peripheral/tcpwm/cy_tcpwm.h **** *   </tr>
 184:Generated_Source\PSoC6\pdl\drivers/peripheral/tcpwm/cy_tcpwm.h **** * </table>
 185:Generated_Source\PSoC6\pdl\drivers/peripheral/tcpwm/cy_tcpwm.h **** */
 186:Generated_Source\PSoC6\pdl\drivers/peripheral/tcpwm/cy_tcpwm.h **** 
 187:Generated_Source\PSoC6\pdl\drivers/peripheral/tcpwm/cy_tcpwm.h **** /** \} group_tcpwm */
 188:Generated_Source\PSoC6\pdl\drivers/peripheral/tcpwm/cy_tcpwm.h **** 
 189:Generated_Source\PSoC6\pdl\drivers/peripheral/tcpwm/cy_tcpwm.h **** /**
 190:Generated_Source\PSoC6\pdl\drivers/peripheral/tcpwm/cy_tcpwm.h **** * \addtogroup group_tcpwm_common
 191:Generated_Source\PSoC6\pdl\drivers/peripheral/tcpwm/cy_tcpwm.h **** * Common API for the Timer Counter PWM Block.
 192:Generated_Source\PSoC6\pdl\drivers/peripheral/tcpwm/cy_tcpwm.h **** * \{
 193:Generated_Source\PSoC6\pdl\drivers/peripheral/tcpwm/cy_tcpwm.h **** * \defgroup group_tcpwm_macros_common           Macros
 194:Generated_Source\PSoC6\pdl\drivers/peripheral/tcpwm/cy_tcpwm.h **** * \defgroup group_tcpwm_functions_common        Functions
 195:Generated_Source\PSoC6\pdl\drivers/peripheral/tcpwm/cy_tcpwm.h **** * \defgroup group_tcpwm_data_structures_common  Data Structures
 196:Generated_Source\PSoC6\pdl\drivers/peripheral/tcpwm/cy_tcpwm.h **** * \defgroup group_tcpwm_enums Enumerated Types
 197:Generated_Source\PSoC6\pdl\drivers/peripheral/tcpwm/cy_tcpwm.h **** */
 198:Generated_Source\PSoC6\pdl\drivers/peripheral/tcpwm/cy_tcpwm.h **** 
 199:Generated_Source\PSoC6\pdl\drivers/peripheral/tcpwm/cy_tcpwm.h **** 
 200:Generated_Source\PSoC6\pdl\drivers/peripheral/tcpwm/cy_tcpwm.h **** #if !defined(CY_TCPWM_H)
ARM GAS  C:\Users\43479\AppData\Local\Temp\ccqwRonb.s 			page 11


 201:Generated_Source\PSoC6\pdl\drivers/peripheral/tcpwm/cy_tcpwm.h **** #define CY_TCPWM_H
 202:Generated_Source\PSoC6\pdl\drivers/peripheral/tcpwm/cy_tcpwm.h **** 
 203:Generated_Source\PSoC6\pdl\drivers/peripheral/tcpwm/cy_tcpwm.h **** #include <stdint.h>
 204:Generated_Source\PSoC6\pdl\drivers/peripheral/tcpwm/cy_tcpwm.h **** #include <stdbool.h>
 205:Generated_Source\PSoC6\pdl\drivers/peripheral/tcpwm/cy_tcpwm.h **** #include <stddef.h>
 206:Generated_Source\PSoC6\pdl\drivers/peripheral/tcpwm/cy_tcpwm.h **** #include "syslib/cy_syslib.h"
 207:Generated_Source\PSoC6\pdl\drivers/peripheral/tcpwm/cy_tcpwm.h **** #include "cy_device_headers.h"
 208:Generated_Source\PSoC6\pdl\drivers/peripheral/tcpwm/cy_tcpwm.h **** 
 209:Generated_Source\PSoC6\pdl\drivers/peripheral/tcpwm/cy_tcpwm.h **** #ifndef CY_IP_MXTCPWM
 210:Generated_Source\PSoC6\pdl\drivers/peripheral/tcpwm/cy_tcpwm.h ****     #error "The TCPWM driver is not supported on this device"
 211:Generated_Source\PSoC6\pdl\drivers/peripheral/tcpwm/cy_tcpwm.h **** #endif
 212:Generated_Source\PSoC6\pdl\drivers/peripheral/tcpwm/cy_tcpwm.h **** 
 213:Generated_Source\PSoC6\pdl\drivers/peripheral/tcpwm/cy_tcpwm.h **** #if defined(__cplusplus)
 214:Generated_Source\PSoC6\pdl\drivers/peripheral/tcpwm/cy_tcpwm.h **** extern "C" {
 215:Generated_Source\PSoC6\pdl\drivers/peripheral/tcpwm/cy_tcpwm.h **** #endif
 216:Generated_Source\PSoC6\pdl\drivers/peripheral/tcpwm/cy_tcpwm.h **** 
 217:Generated_Source\PSoC6\pdl\drivers/peripheral/tcpwm/cy_tcpwm.h **** /**
 218:Generated_Source\PSoC6\pdl\drivers/peripheral/tcpwm/cy_tcpwm.h **** * \addtogroup group_tcpwm_macros_common
 219:Generated_Source\PSoC6\pdl\drivers/peripheral/tcpwm/cy_tcpwm.h **** * \{
 220:Generated_Source\PSoC6\pdl\drivers/peripheral/tcpwm/cy_tcpwm.h **** */
 221:Generated_Source\PSoC6\pdl\drivers/peripheral/tcpwm/cy_tcpwm.h **** 
 222:Generated_Source\PSoC6\pdl\drivers/peripheral/tcpwm/cy_tcpwm.h **** /** Driver major version */
 223:Generated_Source\PSoC6\pdl\drivers/peripheral/tcpwm/cy_tcpwm.h **** #define CY_TCPWM_DRV_VERSION_MAJOR       1
 224:Generated_Source\PSoC6\pdl\drivers/peripheral/tcpwm/cy_tcpwm.h **** 
 225:Generated_Source\PSoC6\pdl\drivers/peripheral/tcpwm/cy_tcpwm.h **** /** Driver minor version */
 226:Generated_Source\PSoC6\pdl\drivers/peripheral/tcpwm/cy_tcpwm.h **** #define CY_TCPWM_DRV_VERSION_MINOR       0
 227:Generated_Source\PSoC6\pdl\drivers/peripheral/tcpwm/cy_tcpwm.h **** 
 228:Generated_Source\PSoC6\pdl\drivers/peripheral/tcpwm/cy_tcpwm.h **** 
 229:Generated_Source\PSoC6\pdl\drivers/peripheral/tcpwm/cy_tcpwm.h **** /******************************************************************************
 230:Generated_Source\PSoC6\pdl\drivers/peripheral/tcpwm/cy_tcpwm.h **** * API Constants
 231:Generated_Source\PSoC6\pdl\drivers/peripheral/tcpwm/cy_tcpwm.h **** ******************************************************************************/
 232:Generated_Source\PSoC6\pdl\drivers/peripheral/tcpwm/cy_tcpwm.h **** 
 233:Generated_Source\PSoC6\pdl\drivers/peripheral/tcpwm/cy_tcpwm.h **** /** TCPWM driver identifier */
 234:Generated_Source\PSoC6\pdl\drivers/peripheral/tcpwm/cy_tcpwm.h **** #define CY_TCPWM_ID                     (CY_PDL_DRV_ID(0x2DU))
 235:Generated_Source\PSoC6\pdl\drivers/peripheral/tcpwm/cy_tcpwm.h **** 
 236:Generated_Source\PSoC6\pdl\drivers/peripheral/tcpwm/cy_tcpwm.h **** /** \defgroup group_tcpwm_input_selection  TCPWM Input Selection
 237:Generated_Source\PSoC6\pdl\drivers/peripheral/tcpwm/cy_tcpwm.h **** * \{
 238:Generated_Source\PSoC6\pdl\drivers/peripheral/tcpwm/cy_tcpwm.h **** * Selects which input to use
 239:Generated_Source\PSoC6\pdl\drivers/peripheral/tcpwm/cy_tcpwm.h **** */
 240:Generated_Source\PSoC6\pdl\drivers/peripheral/tcpwm/cy_tcpwm.h **** #define CY_TCPWM_INPUT_0                (0U)  /**< Input is tied to logic 0 */
 241:Generated_Source\PSoC6\pdl\drivers/peripheral/tcpwm/cy_tcpwm.h **** #define CY_TCPWM_INPUT_1                (1U)  /**< Input is tied to logic 1 */
 242:Generated_Source\PSoC6\pdl\drivers/peripheral/tcpwm/cy_tcpwm.h **** #define CY_TCPWM_INPUT_TRIG_0           (2U)  /**< Input is connected to the trigger input 0 */
 243:Generated_Source\PSoC6\pdl\drivers/peripheral/tcpwm/cy_tcpwm.h **** #define CY_TCPWM_INPUT_TRIG_1           (3U)  /**< Input is connected to the trigger input 1 */
 244:Generated_Source\PSoC6\pdl\drivers/peripheral/tcpwm/cy_tcpwm.h **** #define CY_TCPWM_INPUT_TRIG_2           (4U)  /**< Input is connected to the trigger input 2 */
 245:Generated_Source\PSoC6\pdl\drivers/peripheral/tcpwm/cy_tcpwm.h **** #define CY_TCPWM_INPUT_TRIG_3           (5U)  /**< Input is connected to the trigger input 3 */
 246:Generated_Source\PSoC6\pdl\drivers/peripheral/tcpwm/cy_tcpwm.h **** #define CY_TCPWM_INPUT_TRIG_4           (6U)  /**< Input is connected to the trigger input 4 */
 247:Generated_Source\PSoC6\pdl\drivers/peripheral/tcpwm/cy_tcpwm.h **** #define CY_TCPWM_INPUT_TRIG_5           (7U)  /**< Input is connected to the trigger input 5 */
 248:Generated_Source\PSoC6\pdl\drivers/peripheral/tcpwm/cy_tcpwm.h **** #define CY_TCPWM_INPUT_TRIG_6           (8U)  /**< Input is connected to the trigger input 6 */
 249:Generated_Source\PSoC6\pdl\drivers/peripheral/tcpwm/cy_tcpwm.h **** #define CY_TCPWM_INPUT_TRIG_7           (9U)  /**< Input is connected to the trigger input 7 */
 250:Generated_Source\PSoC6\pdl\drivers/peripheral/tcpwm/cy_tcpwm.h **** #define CY_TCPWM_INPUT_TRIG_8           (10U) /**< Input is connected to the trigger input 8 */
 251:Generated_Source\PSoC6\pdl\drivers/peripheral/tcpwm/cy_tcpwm.h **** #define CY_TCPWM_INPUT_TRIG_9           (11U) /**< Input is connected to the trigger input 9 */
 252:Generated_Source\PSoC6\pdl\drivers/peripheral/tcpwm/cy_tcpwm.h **** #define CY_TCPWM_INPUT_TRIG_10          (12U) /**< Input is connected to the trigger input 10 */
 253:Generated_Source\PSoC6\pdl\drivers/peripheral/tcpwm/cy_tcpwm.h **** #define CY_TCPWM_INPUT_TRIG_11          (13U) /**< Input is connected to the trigger input 11 */
 254:Generated_Source\PSoC6\pdl\drivers/peripheral/tcpwm/cy_tcpwm.h **** #define CY_TCPWM_INPUT_TRIG_12          (14U) /**< Input is connected to the trigger input 12 */
 255:Generated_Source\PSoC6\pdl\drivers/peripheral/tcpwm/cy_tcpwm.h **** #define CY_TCPWM_INPUT_TRIG_13          (15U) /**< Input is connected to the trigger input 13 */
 256:Generated_Source\PSoC6\pdl\drivers/peripheral/tcpwm/cy_tcpwm.h **** 
 257:Generated_Source\PSoC6\pdl\drivers/peripheral/tcpwm/cy_tcpwm.h **** /** Input is defined by Creator, and Init() function does not need to configure input */
ARM GAS  C:\Users\43479\AppData\Local\Temp\ccqwRonb.s 			page 12


 258:Generated_Source\PSoC6\pdl\drivers/peripheral/tcpwm/cy_tcpwm.h **** #define CY_TCPWM_INPUT_CREATOR          (0xFFFFFFFFU)
 259:Generated_Source\PSoC6\pdl\drivers/peripheral/tcpwm/cy_tcpwm.h **** /** \} group_tcpwm_input_selection */
 260:Generated_Source\PSoC6\pdl\drivers/peripheral/tcpwm/cy_tcpwm.h **** 
 261:Generated_Source\PSoC6\pdl\drivers/peripheral/tcpwm/cy_tcpwm.h **** /**
 262:Generated_Source\PSoC6\pdl\drivers/peripheral/tcpwm/cy_tcpwm.h **** * \defgroup group_tcpwm_input_modes  Input Modes
 263:Generated_Source\PSoC6\pdl\drivers/peripheral/tcpwm/cy_tcpwm.h **** * \{
 264:Generated_Source\PSoC6\pdl\drivers/peripheral/tcpwm/cy_tcpwm.h **** * Configures how TCPWM inputs behave
 265:Generated_Source\PSoC6\pdl\drivers/peripheral/tcpwm/cy_tcpwm.h **** */
 266:Generated_Source\PSoC6\pdl\drivers/peripheral/tcpwm/cy_tcpwm.h **** /** A rising edge triggers the event (Capture, Start, Reload, etc..) */
 267:Generated_Source\PSoC6\pdl\drivers/peripheral/tcpwm/cy_tcpwm.h **** #define CY_TCPWM_INPUT_RISINGEDGE       (0U)
 268:Generated_Source\PSoC6\pdl\drivers/peripheral/tcpwm/cy_tcpwm.h **** /** A falling edge triggers the event (Capture, Start, Reload, etc..) */
 269:Generated_Source\PSoC6\pdl\drivers/peripheral/tcpwm/cy_tcpwm.h **** #define CY_TCPWM_INPUT_FALLINGEDGE      (1U)
 270:Generated_Source\PSoC6\pdl\drivers/peripheral/tcpwm/cy_tcpwm.h **** /** A rising edge or falling edge triggers the event (Capture, Start, Reload, etc..) */
 271:Generated_Source\PSoC6\pdl\drivers/peripheral/tcpwm/cy_tcpwm.h **** #define CY_TCPWM_INPUT_EITHEREDGE       (2U)
 272:Generated_Source\PSoC6\pdl\drivers/peripheral/tcpwm/cy_tcpwm.h **** /** The event is triggered on each edge of the TCPWM clock if the input is high */
 273:Generated_Source\PSoC6\pdl\drivers/peripheral/tcpwm/cy_tcpwm.h **** #define CY_TCPWM_INPUT_LEVEL            (3U)
 274:Generated_Source\PSoC6\pdl\drivers/peripheral/tcpwm/cy_tcpwm.h **** /** \} group_tcpwm_input_modes */
 275:Generated_Source\PSoC6\pdl\drivers/peripheral/tcpwm/cy_tcpwm.h **** 
 276:Generated_Source\PSoC6\pdl\drivers/peripheral/tcpwm/cy_tcpwm.h **** /**
 277:Generated_Source\PSoC6\pdl\drivers/peripheral/tcpwm/cy_tcpwm.h **** * \defgroup group_tcpwm_interrupt_sources  Interrupt Sources
 278:Generated_Source\PSoC6\pdl\drivers/peripheral/tcpwm/cy_tcpwm.h **** * \{
 279:Generated_Source\PSoC6\pdl\drivers/peripheral/tcpwm/cy_tcpwm.h **** * Interrupt Sources 
 280:Generated_Source\PSoC6\pdl\drivers/peripheral/tcpwm/cy_tcpwm.h **** */
 281:Generated_Source\PSoC6\pdl\drivers/peripheral/tcpwm/cy_tcpwm.h **** #define CY_TCPWM_INT_ON_TC              (1U) /**< Interrupt on Terminal count(TC) */
 282:Generated_Source\PSoC6\pdl\drivers/peripheral/tcpwm/cy_tcpwm.h **** #define CY_TCPWM_INT_ON_CC              (2U) /**< Interrupt on Compare/Capture(CC) */
 283:Generated_Source\PSoC6\pdl\drivers/peripheral/tcpwm/cy_tcpwm.h **** #define CY_TCPWM_INT_NONE               (0U) /**< No Interrupt */
 284:Generated_Source\PSoC6\pdl\drivers/peripheral/tcpwm/cy_tcpwm.h **** #define CY_TCPWM_INT_ON_CC_OR_TC        (3U) /**< Interrupt on TC or CC */
 285:Generated_Source\PSoC6\pdl\drivers/peripheral/tcpwm/cy_tcpwm.h **** /** \} group_tcpwm_interrupt_sources */
 286:Generated_Source\PSoC6\pdl\drivers/peripheral/tcpwm/cy_tcpwm.h **** 
 287:Generated_Source\PSoC6\pdl\drivers/peripheral/tcpwm/cy_tcpwm.h **** 
 288:Generated_Source\PSoC6\pdl\drivers/peripheral/tcpwm/cy_tcpwm.h **** /***************************************
 289:Generated_Source\PSoC6\pdl\drivers/peripheral/tcpwm/cy_tcpwm.h **** *        Registers Constants
 290:Generated_Source\PSoC6\pdl\drivers/peripheral/tcpwm/cy_tcpwm.h **** ***************************************/
 291:Generated_Source\PSoC6\pdl\drivers/peripheral/tcpwm/cy_tcpwm.h **** 
 292:Generated_Source\PSoC6\pdl\drivers/peripheral/tcpwm/cy_tcpwm.h **** /**
 293:Generated_Source\PSoC6\pdl\drivers/peripheral/tcpwm/cy_tcpwm.h **** * \defgroup group_tcpwm_reg_const Default registers constants
 294:Generated_Source\PSoC6\pdl\drivers/peripheral/tcpwm/cy_tcpwm.h **** * \{
 295:Generated_Source\PSoC6\pdl\drivers/peripheral/tcpwm/cy_tcpwm.h **** * Default constants for CNT Registers
 296:Generated_Source\PSoC6\pdl\drivers/peripheral/tcpwm/cy_tcpwm.h **** */
 297:Generated_Source\PSoC6\pdl\drivers/peripheral/tcpwm/cy_tcpwm.h **** #define CY_TCPWM_CNT_CTRL_DEFAULT           (0x0U) /**< Default value for CTRL register */
 298:Generated_Source\PSoC6\pdl\drivers/peripheral/tcpwm/cy_tcpwm.h **** #define CY_TCPWM_CNT_COUNTER_DEFAULT        (0x0U) /**< Default value for COUNTER register */
 299:Generated_Source\PSoC6\pdl\drivers/peripheral/tcpwm/cy_tcpwm.h **** #define CY_TCPWM_CNT_CC_DEFAULT             (0xFFFFFFFFU) /**< Default value for CC register */
 300:Generated_Source\PSoC6\pdl\drivers/peripheral/tcpwm/cy_tcpwm.h **** #define CY_TCPWM_CNT_CC_BUFF_DEFAULT        (0xFFFFFFFFU) /**< Default value for CC_BUFF register *
 301:Generated_Source\PSoC6\pdl\drivers/peripheral/tcpwm/cy_tcpwm.h **** #define CY_TCPWM_CNT_PERIOD_DEFAULT         (0xFFFFFFFFU) /**< Default value for PERIOD register */
 302:Generated_Source\PSoC6\pdl\drivers/peripheral/tcpwm/cy_tcpwm.h **** #define CY_TCPWM_CNT_PERIOD_BUFF_DEFAULT    (0xFFFFFFFFU) /**< Default value for PERIOD_BUFF regist
 303:Generated_Source\PSoC6\pdl\drivers/peripheral/tcpwm/cy_tcpwm.h **** #define CY_TCPWM_CNT_TR_CTRL0_DEFAULT       (0x10U)  /**< Default value for TR_CTRL0 register */
 304:Generated_Source\PSoC6\pdl\drivers/peripheral/tcpwm/cy_tcpwm.h **** #define CY_TCPWM_CNT_TR_CTRL1_DEFAULT       (0x3FFU) /**< Default value for TR_CTRL1 register */
 305:Generated_Source\PSoC6\pdl\drivers/peripheral/tcpwm/cy_tcpwm.h **** #define CY_TCPWM_CNT_TR_CTRL2_DEFAULT       (0x3FU)  /**< Default value for TR_CTRL2 register */
 306:Generated_Source\PSoC6\pdl\drivers/peripheral/tcpwm/cy_tcpwm.h **** #define CY_TCPWM_CNT_INTR_DEFAULT           (0x3U)   /**< Default value for INTR register */
 307:Generated_Source\PSoC6\pdl\drivers/peripheral/tcpwm/cy_tcpwm.h **** #define CY_TCPWM_CNT_INTR_SET_DEFAULT       (0x0U)   /**< Default value for INTR_SET register */
 308:Generated_Source\PSoC6\pdl\drivers/peripheral/tcpwm/cy_tcpwm.h **** #define CY_TCPWM_CNT_INTR_MASK_DEFAULT      (0x0U)   /**< Default value for INTR_MASK register */
 309:Generated_Source\PSoC6\pdl\drivers/peripheral/tcpwm/cy_tcpwm.h **** /** \} group_tcpwm_reg_const */
 310:Generated_Source\PSoC6\pdl\drivers/peripheral/tcpwm/cy_tcpwm.h **** 
 311:Generated_Source\PSoC6\pdl\drivers/peripheral/tcpwm/cy_tcpwm.h **** /** Position of Up counting counter status */
 312:Generated_Source\PSoC6\pdl\drivers/peripheral/tcpwm/cy_tcpwm.h **** #define CY_TCPWM_CNT_STATUS_UP_POS          (0x1U)
 313:Generated_Source\PSoC6\pdl\drivers/peripheral/tcpwm/cy_tcpwm.h **** /** Initial value for the counter in the Up counting mode */
 314:Generated_Source\PSoC6\pdl\drivers/peripheral/tcpwm/cy_tcpwm.h **** #define CY_TCPWM_CNT_UP_INIT_VAL            (0x0U)
ARM GAS  C:\Users\43479\AppData\Local\Temp\ccqwRonb.s 			page 13


 315:Generated_Source\PSoC6\pdl\drivers/peripheral/tcpwm/cy_tcpwm.h **** /** Initial value for the counter in the Up/Down counting modes */
 316:Generated_Source\PSoC6\pdl\drivers/peripheral/tcpwm/cy_tcpwm.h **** #define CY_TCPWM_CNT_UP_DOWN_INIT_VAL       (0x1U)
 317:Generated_Source\PSoC6\pdl\drivers/peripheral/tcpwm/cy_tcpwm.h **** /** \} group_tcpwm_macros_common */
 318:Generated_Source\PSoC6\pdl\drivers/peripheral/tcpwm/cy_tcpwm.h **** 
 319:Generated_Source\PSoC6\pdl\drivers/peripheral/tcpwm/cy_tcpwm.h **** 
 320:Generated_Source\PSoC6\pdl\drivers/peripheral/tcpwm/cy_tcpwm.h **** /*******************************************************************************
 321:Generated_Source\PSoC6\pdl\drivers/peripheral/tcpwm/cy_tcpwm.h ****  * Enumerations
 322:Generated_Source\PSoC6\pdl\drivers/peripheral/tcpwm/cy_tcpwm.h ****  ******************************************************************************/
 323:Generated_Source\PSoC6\pdl\drivers/peripheral/tcpwm/cy_tcpwm.h **** 
 324:Generated_Source\PSoC6\pdl\drivers/peripheral/tcpwm/cy_tcpwm.h ****  /**
 325:Generated_Source\PSoC6\pdl\drivers/peripheral/tcpwm/cy_tcpwm.h **** * \addtogroup group_tcpwm_enums
 326:Generated_Source\PSoC6\pdl\drivers/peripheral/tcpwm/cy_tcpwm.h **** * \{
 327:Generated_Source\PSoC6\pdl\drivers/peripheral/tcpwm/cy_tcpwm.h **** */
 328:Generated_Source\PSoC6\pdl\drivers/peripheral/tcpwm/cy_tcpwm.h **** 
 329:Generated_Source\PSoC6\pdl\drivers/peripheral/tcpwm/cy_tcpwm.h **** /** TCPWM status definitions */
 330:Generated_Source\PSoC6\pdl\drivers/peripheral/tcpwm/cy_tcpwm.h **** typedef enum 
 331:Generated_Source\PSoC6\pdl\drivers/peripheral/tcpwm/cy_tcpwm.h **** {
 332:Generated_Source\PSoC6\pdl\drivers/peripheral/tcpwm/cy_tcpwm.h ****     CY_TCPWM_SUCCESS = 0x00U,                                           /**< Successful */
 333:Generated_Source\PSoC6\pdl\drivers/peripheral/tcpwm/cy_tcpwm.h ****     CY_TCPWM_BAD_PARAM = CY_TCPWM_ID | CY_PDL_STATUS_ERROR | 0x01U,     /**< One or more invalid pa
 334:Generated_Source\PSoC6\pdl\drivers/peripheral/tcpwm/cy_tcpwm.h **** } cy_en_tcpwm_status_t;
 335:Generated_Source\PSoC6\pdl\drivers/peripheral/tcpwm/cy_tcpwm.h **** /** \} group_tcpwm_enums */
 336:Generated_Source\PSoC6\pdl\drivers/peripheral/tcpwm/cy_tcpwm.h ****  
 337:Generated_Source\PSoC6\pdl\drivers/peripheral/tcpwm/cy_tcpwm.h **** /*******************************************************************************
 338:Generated_Source\PSoC6\pdl\drivers/peripheral/tcpwm/cy_tcpwm.h **** *        Function Prototypes
 339:Generated_Source\PSoC6\pdl\drivers/peripheral/tcpwm/cy_tcpwm.h **** *******************************************************************************/
 340:Generated_Source\PSoC6\pdl\drivers/peripheral/tcpwm/cy_tcpwm.h **** 
 341:Generated_Source\PSoC6\pdl\drivers/peripheral/tcpwm/cy_tcpwm.h **** /**
 342:Generated_Source\PSoC6\pdl\drivers/peripheral/tcpwm/cy_tcpwm.h **** * \addtogroup group_tcpwm_functions_common
 343:Generated_Source\PSoC6\pdl\drivers/peripheral/tcpwm/cy_tcpwm.h **** * \{
 344:Generated_Source\PSoC6\pdl\drivers/peripheral/tcpwm/cy_tcpwm.h **** */
 345:Generated_Source\PSoC6\pdl\drivers/peripheral/tcpwm/cy_tcpwm.h **** 
 346:Generated_Source\PSoC6\pdl\drivers/peripheral/tcpwm/cy_tcpwm.h **** __STATIC_INLINE void Cy_TCPWM_Enable_Multiple(TCPWM_Type *base, uint32_t counters);
 347:Generated_Source\PSoC6\pdl\drivers/peripheral/tcpwm/cy_tcpwm.h **** __STATIC_INLINE void Cy_TCPWM_Disable_Multiple(TCPWM_Type *base, uint32_t counters);
 348:Generated_Source\PSoC6\pdl\drivers/peripheral/tcpwm/cy_tcpwm.h **** __STATIC_INLINE void Cy_TCPWM_TriggerStart(TCPWM_Type *base, uint32_t counters);
 349:Generated_Source\PSoC6\pdl\drivers/peripheral/tcpwm/cy_tcpwm.h **** __STATIC_INLINE void Cy_TCPWM_TriggerReloadOrIndex(TCPWM_Type *base, uint32_t counters);
 350:Generated_Source\PSoC6\pdl\drivers/peripheral/tcpwm/cy_tcpwm.h **** __STATIC_INLINE void Cy_TCPWM_TriggerStopOrKill(TCPWM_Type *base, uint32_t counters);
 351:Generated_Source\PSoC6\pdl\drivers/peripheral/tcpwm/cy_tcpwm.h **** __STATIC_INLINE void Cy_TCPWM_TriggerCaptureOrSwap(TCPWM_Type *base, uint32_t counters);
 352:Generated_Source\PSoC6\pdl\drivers/peripheral/tcpwm/cy_tcpwm.h **** __STATIC_INLINE uint32_t Cy_TCPWM_GetInterruptStatus(TCPWM_Type const *base, uint32_t cntNum);
 353:Generated_Source\PSoC6\pdl\drivers/peripheral/tcpwm/cy_tcpwm.h **** __STATIC_INLINE void Cy_TCPWM_ClearInterrupt(TCPWM_Type *base, uint32_t cntNum, uint32_t source);
 354:Generated_Source\PSoC6\pdl\drivers/peripheral/tcpwm/cy_tcpwm.h **** __STATIC_INLINE void Cy_TCPWM_SetInterrupt(TCPWM_Type *base, uint32_t cntNum, uint32_t source);
 355:Generated_Source\PSoC6\pdl\drivers/peripheral/tcpwm/cy_tcpwm.h **** __STATIC_INLINE void Cy_TCPWM_SetInterruptMask(TCPWM_Type *base, uint32_t cntNum, uint32_t mask);
 356:Generated_Source\PSoC6\pdl\drivers/peripheral/tcpwm/cy_tcpwm.h **** __STATIC_INLINE uint32_t Cy_TCPWM_GetInterruptMask(TCPWM_Type const *base, uint32_t cntNum);
 357:Generated_Source\PSoC6\pdl\drivers/peripheral/tcpwm/cy_tcpwm.h **** __STATIC_INLINE uint32_t Cy_TCPWM_GetInterruptStatusMasked(TCPWM_Type const *base, uint32_t cntNum)
 358:Generated_Source\PSoC6\pdl\drivers/peripheral/tcpwm/cy_tcpwm.h **** 
 359:Generated_Source\PSoC6\pdl\drivers/peripheral/tcpwm/cy_tcpwm.h **** 
 360:Generated_Source\PSoC6\pdl\drivers/peripheral/tcpwm/cy_tcpwm.h **** /*******************************************************************************
 361:Generated_Source\PSoC6\pdl\drivers/peripheral/tcpwm/cy_tcpwm.h **** * Function Name: Cy_TCPWM_Enable_Multiple
 362:Generated_Source\PSoC6\pdl\drivers/peripheral/tcpwm/cy_tcpwm.h **** ****************************************************************************//**
 363:Generated_Source\PSoC6\pdl\drivers/peripheral/tcpwm/cy_tcpwm.h **** *
 364:Generated_Source\PSoC6\pdl\drivers/peripheral/tcpwm/cy_tcpwm.h **** * Enables the counter(s) in the TCPWM block. Multiple blocks can be started 
 365:Generated_Source\PSoC6\pdl\drivers/peripheral/tcpwm/cy_tcpwm.h **** * simultaneously.
 366:Generated_Source\PSoC6\pdl\drivers/peripheral/tcpwm/cy_tcpwm.h **** *
 367:Generated_Source\PSoC6\pdl\drivers/peripheral/tcpwm/cy_tcpwm.h **** * \param base
 368:Generated_Source\PSoC6\pdl\drivers/peripheral/tcpwm/cy_tcpwm.h **** * The pointer to a TCPWM instance.
 369:Generated_Source\PSoC6\pdl\drivers/peripheral/tcpwm/cy_tcpwm.h **** *
 370:Generated_Source\PSoC6\pdl\drivers/peripheral/tcpwm/cy_tcpwm.h **** * \param counters
 371:Generated_Source\PSoC6\pdl\drivers/peripheral/tcpwm/cy_tcpwm.h **** * A bit field representing each counter in the TCPWM block.
ARM GAS  C:\Users\43479\AppData\Local\Temp\ccqwRonb.s 			page 14


 372:Generated_Source\PSoC6\pdl\drivers/peripheral/tcpwm/cy_tcpwm.h **** *
 373:Generated_Source\PSoC6\pdl\drivers/peripheral/tcpwm/cy_tcpwm.h **** * \funcusage
 374:Generated_Source\PSoC6\pdl\drivers/peripheral/tcpwm/cy_tcpwm.h **** * \snippet tcpwm/tcpwm_v1_0_counter_sut_01.cydsn/main_cm4.c snippet_Cy_TCPWM_Enable_Multiple
 375:Generated_Source\PSoC6\pdl\drivers/peripheral/tcpwm/cy_tcpwm.h **** *
 376:Generated_Source\PSoC6\pdl\drivers/peripheral/tcpwm/cy_tcpwm.h **** *******************************************************************************/
 377:Generated_Source\PSoC6\pdl\drivers/peripheral/tcpwm/cy_tcpwm.h **** __STATIC_INLINE void Cy_TCPWM_Enable_Multiple(TCPWM_Type *base, uint32_t counters)
 378:Generated_Source\PSoC6\pdl\drivers/peripheral/tcpwm/cy_tcpwm.h **** {
 379:Generated_Source\PSoC6\pdl\drivers/peripheral/tcpwm/cy_tcpwm.h ****     base->CTRL_SET = counters;
 380:Generated_Source\PSoC6\pdl\drivers/peripheral/tcpwm/cy_tcpwm.h **** }
 381:Generated_Source\PSoC6\pdl\drivers/peripheral/tcpwm/cy_tcpwm.h **** 
 382:Generated_Source\PSoC6\pdl\drivers/peripheral/tcpwm/cy_tcpwm.h **** 
 383:Generated_Source\PSoC6\pdl\drivers/peripheral/tcpwm/cy_tcpwm.h **** /*******************************************************************************
 384:Generated_Source\PSoC6\pdl\drivers/peripheral/tcpwm/cy_tcpwm.h **** * Function Name: Cy_TCPWM_Disable_Multiple
 385:Generated_Source\PSoC6\pdl\drivers/peripheral/tcpwm/cy_tcpwm.h **** ****************************************************************************//**
 386:Generated_Source\PSoC6\pdl\drivers/peripheral/tcpwm/cy_tcpwm.h **** *
 387:Generated_Source\PSoC6\pdl\drivers/peripheral/tcpwm/cy_tcpwm.h **** * Disables the counter(s) in the TCPWM block. Multiple TCPWM can be disabled 
 388:Generated_Source\PSoC6\pdl\drivers/peripheral/tcpwm/cy_tcpwm.h **** * simultaneously.
 389:Generated_Source\PSoC6\pdl\drivers/peripheral/tcpwm/cy_tcpwm.h **** *
 390:Generated_Source\PSoC6\pdl\drivers/peripheral/tcpwm/cy_tcpwm.h **** * \param base
 391:Generated_Source\PSoC6\pdl\drivers/peripheral/tcpwm/cy_tcpwm.h **** * The pointer to a TCPWM instance.
 392:Generated_Source\PSoC6\pdl\drivers/peripheral/tcpwm/cy_tcpwm.h **** *
 393:Generated_Source\PSoC6\pdl\drivers/peripheral/tcpwm/cy_tcpwm.h **** * \param counters
 394:Generated_Source\PSoC6\pdl\drivers/peripheral/tcpwm/cy_tcpwm.h **** * A bit field representing each counter in the TCPWM block.
 395:Generated_Source\PSoC6\pdl\drivers/peripheral/tcpwm/cy_tcpwm.h **** *
 396:Generated_Source\PSoC6\pdl\drivers/peripheral/tcpwm/cy_tcpwm.h **** * \funcusage
 397:Generated_Source\PSoC6\pdl\drivers/peripheral/tcpwm/cy_tcpwm.h **** * \snippet tcpwm/tcpwm_v1_0_counter_sut_01.cydsn/main_cm4.c snippet_Cy_TCPWM_Disable_Multiple
 398:Generated_Source\PSoC6\pdl\drivers/peripheral/tcpwm/cy_tcpwm.h **** *
 399:Generated_Source\PSoC6\pdl\drivers/peripheral/tcpwm/cy_tcpwm.h **** *******************************************************************************/
 400:Generated_Source\PSoC6\pdl\drivers/peripheral/tcpwm/cy_tcpwm.h **** __STATIC_INLINE void Cy_TCPWM_Disable_Multiple(TCPWM_Type *base, uint32_t counters)
 401:Generated_Source\PSoC6\pdl\drivers/peripheral/tcpwm/cy_tcpwm.h **** {
 402:Generated_Source\PSoC6\pdl\drivers/peripheral/tcpwm/cy_tcpwm.h ****     base->CTRL_CLR = counters;
 403:Generated_Source\PSoC6\pdl\drivers/peripheral/tcpwm/cy_tcpwm.h **** }
 404:Generated_Source\PSoC6\pdl\drivers/peripheral/tcpwm/cy_tcpwm.h **** 
 405:Generated_Source\PSoC6\pdl\drivers/peripheral/tcpwm/cy_tcpwm.h **** 
 406:Generated_Source\PSoC6\pdl\drivers/peripheral/tcpwm/cy_tcpwm.h **** /*******************************************************************************
 407:Generated_Source\PSoC6\pdl\drivers/peripheral/tcpwm/cy_tcpwm.h **** * Function Name: Cy_TCPWM_TriggerStart
 408:Generated_Source\PSoC6\pdl\drivers/peripheral/tcpwm/cy_tcpwm.h **** ****************************************************************************//**
 409:Generated_Source\PSoC6\pdl\drivers/peripheral/tcpwm/cy_tcpwm.h **** *
 410:Generated_Source\PSoC6\pdl\drivers/peripheral/tcpwm/cy_tcpwm.h **** * Triggers a software start on the selected TCPWMs.
 411:Generated_Source\PSoC6\pdl\drivers/peripheral/tcpwm/cy_tcpwm.h **** *
 412:Generated_Source\PSoC6\pdl\drivers/peripheral/tcpwm/cy_tcpwm.h **** * \param base
 413:Generated_Source\PSoC6\pdl\drivers/peripheral/tcpwm/cy_tcpwm.h **** * The pointer to a TCPWM instance.
 414:Generated_Source\PSoC6\pdl\drivers/peripheral/tcpwm/cy_tcpwm.h **** *
 415:Generated_Source\PSoC6\pdl\drivers/peripheral/tcpwm/cy_tcpwm.h **** * \param counters
 416:Generated_Source\PSoC6\pdl\drivers/peripheral/tcpwm/cy_tcpwm.h **** * A bit field representing each counter in the TCPWM block.
 417:Generated_Source\PSoC6\pdl\drivers/peripheral/tcpwm/cy_tcpwm.h **** *
 418:Generated_Source\PSoC6\pdl\drivers/peripheral/tcpwm/cy_tcpwm.h **** * \funcusage
 419:Generated_Source\PSoC6\pdl\drivers/peripheral/tcpwm/cy_tcpwm.h **** * \snippet tcpwm/tcpwm_v1_0_counter_sut_01.cydsn/main_cm4.c snippet_Cy_TCPWM_Enable_Multiple
 420:Generated_Source\PSoC6\pdl\drivers/peripheral/tcpwm/cy_tcpwm.h **** *
 421:Generated_Source\PSoC6\pdl\drivers/peripheral/tcpwm/cy_tcpwm.h **** *******************************************************************************/
 422:Generated_Source\PSoC6\pdl\drivers/peripheral/tcpwm/cy_tcpwm.h **** __STATIC_INLINE  void Cy_TCPWM_TriggerStart(TCPWM_Type *base, uint32_t counters)
 423:Generated_Source\PSoC6\pdl\drivers/peripheral/tcpwm/cy_tcpwm.h **** {
 424:Generated_Source\PSoC6\pdl\drivers/peripheral/tcpwm/cy_tcpwm.h ****     base->CMD_START = counters;
 425:Generated_Source\PSoC6\pdl\drivers/peripheral/tcpwm/cy_tcpwm.h **** }
 426:Generated_Source\PSoC6\pdl\drivers/peripheral/tcpwm/cy_tcpwm.h **** 
 427:Generated_Source\PSoC6\pdl\drivers/peripheral/tcpwm/cy_tcpwm.h **** 
 428:Generated_Source\PSoC6\pdl\drivers/peripheral/tcpwm/cy_tcpwm.h **** /*******************************************************************************
ARM GAS  C:\Users\43479\AppData\Local\Temp\ccqwRonb.s 			page 15


 429:Generated_Source\PSoC6\pdl\drivers/peripheral/tcpwm/cy_tcpwm.h **** * Function Name: Cy_TCPWM_TriggerReloadOrIndex
 430:Generated_Source\PSoC6\pdl\drivers/peripheral/tcpwm/cy_tcpwm.h **** ****************************************************************************//**
 431:Generated_Source\PSoC6\pdl\drivers/peripheral/tcpwm/cy_tcpwm.h **** *
 432:Generated_Source\PSoC6\pdl\drivers/peripheral/tcpwm/cy_tcpwm.h **** * Triggers a software reload event (or index in QuadDec mode).
 433:Generated_Source\PSoC6\pdl\drivers/peripheral/tcpwm/cy_tcpwm.h **** *
 434:Generated_Source\PSoC6\pdl\drivers/peripheral/tcpwm/cy_tcpwm.h **** * \param base
 435:Generated_Source\PSoC6\pdl\drivers/peripheral/tcpwm/cy_tcpwm.h **** * The pointer to a TCPWM instance
 436:Generated_Source\PSoC6\pdl\drivers/peripheral/tcpwm/cy_tcpwm.h **** *
 437:Generated_Source\PSoC6\pdl\drivers/peripheral/tcpwm/cy_tcpwm.h **** * \param counters
 438:Generated_Source\PSoC6\pdl\drivers/peripheral/tcpwm/cy_tcpwm.h **** * A bit field representing each counter in the TCPWM block.
 439:Generated_Source\PSoC6\pdl\drivers/peripheral/tcpwm/cy_tcpwm.h **** *
 440:Generated_Source\PSoC6\pdl\drivers/peripheral/tcpwm/cy_tcpwm.h **** * \funcusage
 441:Generated_Source\PSoC6\pdl\drivers/peripheral/tcpwm/cy_tcpwm.h **** * \snippet tcpwm/tcpwm_v1_0_counter_sut_01.cydsn/main_cm4.c snippet_Cy_TCPWM_TriggerReloadOrIndex
 442:Generated_Source\PSoC6\pdl\drivers/peripheral/tcpwm/cy_tcpwm.h **** *
 443:Generated_Source\PSoC6\pdl\drivers/peripheral/tcpwm/cy_tcpwm.h **** *******************************************************************************/
 444:Generated_Source\PSoC6\pdl\drivers/peripheral/tcpwm/cy_tcpwm.h **** __STATIC_INLINE void Cy_TCPWM_TriggerReloadOrIndex(TCPWM_Type *base, uint32_t counters)
 445:Generated_Source\PSoC6\pdl\drivers/peripheral/tcpwm/cy_tcpwm.h **** {
 446:Generated_Source\PSoC6\pdl\drivers/peripheral/tcpwm/cy_tcpwm.h ****     base->CMD_RELOAD = counters;
 447:Generated_Source\PSoC6\pdl\drivers/peripheral/tcpwm/cy_tcpwm.h **** }
 448:Generated_Source\PSoC6\pdl\drivers/peripheral/tcpwm/cy_tcpwm.h **** 
 449:Generated_Source\PSoC6\pdl\drivers/peripheral/tcpwm/cy_tcpwm.h **** 
 450:Generated_Source\PSoC6\pdl\drivers/peripheral/tcpwm/cy_tcpwm.h **** /*******************************************************************************
 451:Generated_Source\PSoC6\pdl\drivers/peripheral/tcpwm/cy_tcpwm.h **** * Function Name: Cy_TCPWM_TriggerStopOrKill
 452:Generated_Source\PSoC6\pdl\drivers/peripheral/tcpwm/cy_tcpwm.h **** ****************************************************************************//**
 453:Generated_Source\PSoC6\pdl\drivers/peripheral/tcpwm/cy_tcpwm.h **** *
 454:Generated_Source\PSoC6\pdl\drivers/peripheral/tcpwm/cy_tcpwm.h **** * Triggers a stop in the Timer Counter mode, or a kill in the PWM mode.
 455:Generated_Source\PSoC6\pdl\drivers/peripheral/tcpwm/cy_tcpwm.h **** *
 456:Generated_Source\PSoC6\pdl\drivers/peripheral/tcpwm/cy_tcpwm.h **** * \param base
 457:Generated_Source\PSoC6\pdl\drivers/peripheral/tcpwm/cy_tcpwm.h **** * The pointer to a TCPWM instance.
 458:Generated_Source\PSoC6\pdl\drivers/peripheral/tcpwm/cy_tcpwm.h **** *
 459:Generated_Source\PSoC6\pdl\drivers/peripheral/tcpwm/cy_tcpwm.h **** * \param counters
 460:Generated_Source\PSoC6\pdl\drivers/peripheral/tcpwm/cy_tcpwm.h **** * A bit field representing each counter in the TCPWM block.
 461:Generated_Source\PSoC6\pdl\drivers/peripheral/tcpwm/cy_tcpwm.h **** *
 462:Generated_Source\PSoC6\pdl\drivers/peripheral/tcpwm/cy_tcpwm.h **** * \funcusage
 463:Generated_Source\PSoC6\pdl\drivers/peripheral/tcpwm/cy_tcpwm.h **** * \snippet tcpwm/tcpwm_v1_0_counter_sut_01.cydsn/main_cm4.c snippet_Cy_TCPWM_TriggerStopOrKill
 464:Generated_Source\PSoC6\pdl\drivers/peripheral/tcpwm/cy_tcpwm.h **** *
 465:Generated_Source\PSoC6\pdl\drivers/peripheral/tcpwm/cy_tcpwm.h **** *******************************************************************************/
 466:Generated_Source\PSoC6\pdl\drivers/peripheral/tcpwm/cy_tcpwm.h **** __STATIC_INLINE void Cy_TCPWM_TriggerStopOrKill(TCPWM_Type *base, uint32_t counters)
 467:Generated_Source\PSoC6\pdl\drivers/peripheral/tcpwm/cy_tcpwm.h **** {
 468:Generated_Source\PSoC6\pdl\drivers/peripheral/tcpwm/cy_tcpwm.h ****     base->CMD_STOP = counters;
 469:Generated_Source\PSoC6\pdl\drivers/peripheral/tcpwm/cy_tcpwm.h **** }
 470:Generated_Source\PSoC6\pdl\drivers/peripheral/tcpwm/cy_tcpwm.h **** 
 471:Generated_Source\PSoC6\pdl\drivers/peripheral/tcpwm/cy_tcpwm.h **** 
 472:Generated_Source\PSoC6\pdl\drivers/peripheral/tcpwm/cy_tcpwm.h **** /*******************************************************************************
 473:Generated_Source\PSoC6\pdl\drivers/peripheral/tcpwm/cy_tcpwm.h **** * Function Name: Cy_TCPWM_TriggerCaptureOrSwap
 474:Generated_Source\PSoC6\pdl\drivers/peripheral/tcpwm/cy_tcpwm.h **** ****************************************************************************//**
 475:Generated_Source\PSoC6\pdl\drivers/peripheral/tcpwm/cy_tcpwm.h **** *
 476:Generated_Source\PSoC6\pdl\drivers/peripheral/tcpwm/cy_tcpwm.h **** * Triggers a Capture in the Timer Counter mode, and a Swap in the PWM mode.
 477:Generated_Source\PSoC6\pdl\drivers/peripheral/tcpwm/cy_tcpwm.h **** *
 478:Generated_Source\PSoC6\pdl\drivers/peripheral/tcpwm/cy_tcpwm.h **** * \param base
 479:Generated_Source\PSoC6\pdl\drivers/peripheral/tcpwm/cy_tcpwm.h **** * The pointer to a TCPWM instance.
 480:Generated_Source\PSoC6\pdl\drivers/peripheral/tcpwm/cy_tcpwm.h **** *
 481:Generated_Source\PSoC6\pdl\drivers/peripheral/tcpwm/cy_tcpwm.h **** * \param counters
 482:Generated_Source\PSoC6\pdl\drivers/peripheral/tcpwm/cy_tcpwm.h **** * A bit field representing each counter in the TCPWM block.
 483:Generated_Source\PSoC6\pdl\drivers/peripheral/tcpwm/cy_tcpwm.h **** *
 484:Generated_Source\PSoC6\pdl\drivers/peripheral/tcpwm/cy_tcpwm.h **** * \funcusage
 485:Generated_Source\PSoC6\pdl\drivers/peripheral/tcpwm/cy_tcpwm.h **** * \snippet tcpwm/tcpwm_v1_0_counter_sut_01.cydsn/main_cm4.c snippet_Cy_TCPWM_Counter_Capture
ARM GAS  C:\Users\43479\AppData\Local\Temp\ccqwRonb.s 			page 16


 486:Generated_Source\PSoC6\pdl\drivers/peripheral/tcpwm/cy_tcpwm.h **** *
 487:Generated_Source\PSoC6\pdl\drivers/peripheral/tcpwm/cy_tcpwm.h **** *******************************************************************************/
 488:Generated_Source\PSoC6\pdl\drivers/peripheral/tcpwm/cy_tcpwm.h **** __STATIC_INLINE void Cy_TCPWM_TriggerCaptureOrSwap(TCPWM_Type *base, uint32_t counters)
 489:Generated_Source\PSoC6\pdl\drivers/peripheral/tcpwm/cy_tcpwm.h **** {
 490:Generated_Source\PSoC6\pdl\drivers/peripheral/tcpwm/cy_tcpwm.h ****     base->CMD_CAPTURE = counters;
 491:Generated_Source\PSoC6\pdl\drivers/peripheral/tcpwm/cy_tcpwm.h **** }
 492:Generated_Source\PSoC6\pdl\drivers/peripheral/tcpwm/cy_tcpwm.h **** 
 493:Generated_Source\PSoC6\pdl\drivers/peripheral/tcpwm/cy_tcpwm.h **** 
 494:Generated_Source\PSoC6\pdl\drivers/peripheral/tcpwm/cy_tcpwm.h **** /*******************************************************************************
 495:Generated_Source\PSoC6\pdl\drivers/peripheral/tcpwm/cy_tcpwm.h **** * Function Name: Cy_TCPWM_GetInterruptStatus
 496:Generated_Source\PSoC6\pdl\drivers/peripheral/tcpwm/cy_tcpwm.h **** ****************************************************************************//**
 497:Generated_Source\PSoC6\pdl\drivers/peripheral/tcpwm/cy_tcpwm.h **** *
 498:Generated_Source\PSoC6\pdl\drivers/peripheral/tcpwm/cy_tcpwm.h **** * Returns which event triggered the interrupt.
 499:Generated_Source\PSoC6\pdl\drivers/peripheral/tcpwm/cy_tcpwm.h **** *
 500:Generated_Source\PSoC6\pdl\drivers/peripheral/tcpwm/cy_tcpwm.h **** * \param base
 501:Generated_Source\PSoC6\pdl\drivers/peripheral/tcpwm/cy_tcpwm.h **** * The pointer to a TCPWM instance.
 502:Generated_Source\PSoC6\pdl\drivers/peripheral/tcpwm/cy_tcpwm.h **** *
 503:Generated_Source\PSoC6\pdl\drivers/peripheral/tcpwm/cy_tcpwm.h **** * \param cntNum 
 504:Generated_Source\PSoC6\pdl\drivers/peripheral/tcpwm/cy_tcpwm.h **** * The Counter instance number in the selected TCPWM.
 505:Generated_Source\PSoC6\pdl\drivers/peripheral/tcpwm/cy_tcpwm.h **** *
 506:Generated_Source\PSoC6\pdl\drivers/peripheral/tcpwm/cy_tcpwm.h **** * \return 
 507:Generated_Source\PSoC6\pdl\drivers/peripheral/tcpwm/cy_tcpwm.h **** *. See \ref group_tcpwm_interrupt_sources
 508:Generated_Source\PSoC6\pdl\drivers/peripheral/tcpwm/cy_tcpwm.h **** *
 509:Generated_Source\PSoC6\pdl\drivers/peripheral/tcpwm/cy_tcpwm.h **** * \funcusage
 510:Generated_Source\PSoC6\pdl\drivers/peripheral/tcpwm/cy_tcpwm.h **** * \snippet tcpwm/tcpwm_v1_0_counter_sut_01.cydsn/main_cm4.c snippet_Cy_TCPWM_GetInterruptStatus
 511:Generated_Source\PSoC6\pdl\drivers/peripheral/tcpwm/cy_tcpwm.h **** *
 512:Generated_Source\PSoC6\pdl\drivers/peripheral/tcpwm/cy_tcpwm.h **** *******************************************************************************/
 513:Generated_Source\PSoC6\pdl\drivers/peripheral/tcpwm/cy_tcpwm.h **** __STATIC_INLINE uint32_t Cy_TCPWM_GetInterruptStatus(TCPWM_Type const *base, uint32_t cntNum)
 514:Generated_Source\PSoC6\pdl\drivers/peripheral/tcpwm/cy_tcpwm.h **** {
 515:Generated_Source\PSoC6\pdl\drivers/peripheral/tcpwm/cy_tcpwm.h ****     return(base->CNT[cntNum].INTR);
 516:Generated_Source\PSoC6\pdl\drivers/peripheral/tcpwm/cy_tcpwm.h **** }
 517:Generated_Source\PSoC6\pdl\drivers/peripheral/tcpwm/cy_tcpwm.h **** 
 518:Generated_Source\PSoC6\pdl\drivers/peripheral/tcpwm/cy_tcpwm.h **** 
 519:Generated_Source\PSoC6\pdl\drivers/peripheral/tcpwm/cy_tcpwm.h **** /*******************************************************************************
 520:Generated_Source\PSoC6\pdl\drivers/peripheral/tcpwm/cy_tcpwm.h **** * Function Name: Cy_TCPWM_ClearInterrupt
 521:Generated_Source\PSoC6\pdl\drivers/peripheral/tcpwm/cy_tcpwm.h **** ****************************************************************************//**
 522:Generated_Source\PSoC6\pdl\drivers/peripheral/tcpwm/cy_tcpwm.h **** *
 523:Generated_Source\PSoC6\pdl\drivers/peripheral/tcpwm/cy_tcpwm.h **** * Clears Active Interrupt Source
 524:Generated_Source\PSoC6\pdl\drivers/peripheral/tcpwm/cy_tcpwm.h **** *
 525:Generated_Source\PSoC6\pdl\drivers/peripheral/tcpwm/cy_tcpwm.h **** * \param base
 526:Generated_Source\PSoC6\pdl\drivers/peripheral/tcpwm/cy_tcpwm.h **** * The pointer to a TCPWM instance.
 527:Generated_Source\PSoC6\pdl\drivers/peripheral/tcpwm/cy_tcpwm.h **** *
 528:Generated_Source\PSoC6\pdl\drivers/peripheral/tcpwm/cy_tcpwm.h **** * \param cntNum 
 529:Generated_Source\PSoC6\pdl\drivers/peripheral/tcpwm/cy_tcpwm.h **** * The Counter instance number in the selected TCPWM.
 530:Generated_Source\PSoC6\pdl\drivers/peripheral/tcpwm/cy_tcpwm.h **** *
 531:Generated_Source\PSoC6\pdl\drivers/peripheral/tcpwm/cy_tcpwm.h **** * \param source
 532:Generated_Source\PSoC6\pdl\drivers/peripheral/tcpwm/cy_tcpwm.h **** * source to clear. See \ref group_tcpwm_interrupt_sources
 533:Generated_Source\PSoC6\pdl\drivers/peripheral/tcpwm/cy_tcpwm.h **** *
 534:Generated_Source\PSoC6\pdl\drivers/peripheral/tcpwm/cy_tcpwm.h **** * \funcusage
 535:Generated_Source\PSoC6\pdl\drivers/peripheral/tcpwm/cy_tcpwm.h **** * \snippet tcpwm/tcpwm_v1_0_counter_sut_01.cydsn/main_cm4.c snippet_Cy_TCPWM_GetInterruptStatusMask
 536:Generated_Source\PSoC6\pdl\drivers/peripheral/tcpwm/cy_tcpwm.h **** *
 537:Generated_Source\PSoC6\pdl\drivers/peripheral/tcpwm/cy_tcpwm.h **** *******************************************************************************/
 538:Generated_Source\PSoC6\pdl\drivers/peripheral/tcpwm/cy_tcpwm.h **** __STATIC_INLINE void Cy_TCPWM_ClearInterrupt(TCPWM_Type *base, uint32_t cntNum,  uint32_t source)
 539:Generated_Source\PSoC6\pdl\drivers/peripheral/tcpwm/cy_tcpwm.h **** {
 540:Generated_Source\PSoC6\pdl\drivers/peripheral/tcpwm/cy_tcpwm.h ****     base->CNT[cntNum].INTR = source;
  45              		.loc 2 540 0
  46 0004 2E4B     		ldr	r3, .L10
ARM GAS  C:\Users\43479\AppData\Local\Temp\ccqwRonb.s 			page 17


  47 0006 0122     		movs	r2, #1
  48 0008 C3F83021 		str	r2, [r3, #304]
 541:Generated_Source\PSoC6\pdl\drivers/peripheral/tcpwm/cy_tcpwm.h ****     (void)base->CNT[cntNum].INTR;
  49              		.loc 2 541 0
  50 000c D3F83031 		ldr	r3, [r3, #304]
  51              	.LVL1:
  52              	.LBE61:
  53              	.LBE60:
  54              	.LBB62:
 327:host_main.c   **** //    Cy_GPIO_Write(Debug_PORT,Debug_NUM, 1);
 328:host_main.c   ****    
 329:host_main.c   ****     /* Clear the terminal count interrupt */
 330:host_main.c   ****     Cy_TCPWM_ClearInterrupt(Timer_HW, Timer_CNT_NUM, CY_TCPWM_INT_ON_TC);
 331:host_main.c   ****     
 332:host_main.c   **** //    /* Toggle the LED */
 333:host_main.c   **** //    Cy_GPIO_Inv(Debug_PORT, Debug_NUM);
 334:host_main.c   ****     
 335:host_main.c   ****     /*ADC task*/
 336:host_main.c   ****     int16_t countReference;
 337:host_main.c   ****     for(uint8 i = 0;i < 6;i++)
  55              		.loc 1 337 0
  56 0010 0026     		movs	r6, #0
  57 0012 4DE0     		b	.L2
  58              	.LVL2:
  59              	.L8:
 338:host_main.c   ****     {
 339:host_main.c   ****                  
 340:host_main.c   ****         AMux_2_FastSelect(i); 
  60              		.loc 1 340 0
  61 0014 3046     		mov	r0, r6
  62 0016 FFF7FEFF 		bl	AMux_2_FastSelect
  63              	.LVL3:
 341:host_main.c   ****         CyDelayUs(3);  // 似乎这个Delay是不需要的
  64              		.loc 1 341 0
  65 001a 0320     		movs	r0, #3
  66 001c FFF7FEFF 		bl	Cy_SysLib_DelayUs
  67              	.LVL4:
  68              	.LBB63:
 342:host_main.c   ****         
 343:host_main.c   ****         for(uint8 j = 0; j < 6; j++)
  69              		.loc 1 343 0
  70 0020 0024     		movs	r4, #0
  71 0022 41E0     		b	.L3
  72              	.LVL5:
  73              	.L7:
 344:host_main.c   ****         {
 345:host_main.c   ****             countReference = 0;
 346:host_main.c   **** 
 347:host_main.c   ****             AMux_1_FastSelect(j); 
  74              		.loc 1 347 0
  75 0024 2046     		mov	r0, r4
  76 0026 FFF7FEFF 		bl	AMux_1_FastSelect
  77              	.LVL6:
 348:host_main.c   ****             CyDelayUs(10);
  78              		.loc 1 348 0
  79 002a 0A20     		movs	r0, #10
  80 002c FFF7FEFF 		bl	Cy_SysLib_DelayUs
ARM GAS  C:\Users\43479\AppData\Local\Temp\ccqwRonb.s 			page 18


  81              	.LVL7:
 349:host_main.c   ****              
 350:host_main.c   ****             ADC_1_StartConvert();                 
  82              		.loc 1 350 0
  83 0030 FFF7FEFF 		bl	ADC_1_StartConvert
  84              	.LVL8:
  85              	.L4:
 351:host_main.c   ****             while(!ADC_1_IsEndConversion(CY_SAR_WAIT_FOR_RESULT));
  86              		.loc 1 351 0 discriminator 1
  87 0034 0120     		movs	r0, #1
  88 0036 FFF7FEFF 		bl	ADC_1_IsEndConversion
  89              	.LVL9:
  90 003a 0028     		cmp	r0, #0
  91 003c FAD0     		beq	.L4
  92              	.LBB64:
  93              	.LBB65:
  94              		.file 3 "Generated_Source\\PSoC6/ADC_1.h"
   1:Generated_Source\PSoC6/ADC_1.h **** /***************************************************************************//**
   2:Generated_Source\PSoC6/ADC_1.h **** * \file     ADC_1.h
   3:Generated_Source\PSoC6/ADC_1.h **** * \version  2.10
   4:Generated_Source\PSoC6/ADC_1.h **** *
   5:Generated_Source\PSoC6/ADC_1.h **** * \brief
   6:Generated_Source\PSoC6/ADC_1.h **** * Provides the source code to the API for the ADC_1 Component.
   7:Generated_Source\PSoC6/ADC_1.h **** *
   8:Generated_Source\PSoC6/ADC_1.h **** ********************************************************************************
   9:Generated_Source\PSoC6/ADC_1.h **** * \copyright
  10:Generated_Source\PSoC6/ADC_1.h **** * (c) 2017, Cypress Semiconductor Corporation. All rights reserved.
  11:Generated_Source\PSoC6/ADC_1.h **** * This software, including source code, documentation and related
  12:Generated_Source\PSoC6/ADC_1.h **** * materials ("Software"), is owned by Cypress Semiconductor
  13:Generated_Source\PSoC6/ADC_1.h **** * Corporation ("Cypress") and is protected by and subject to worldwide
  14:Generated_Source\PSoC6/ADC_1.h **** * patent protection (United States and foreign), United States copyright
  15:Generated_Source\PSoC6/ADC_1.h **** * laws and international treaty provisions. Therefore, you may use this
  16:Generated_Source\PSoC6/ADC_1.h **** * Software only as provided in the license agreement accompanying the
  17:Generated_Source\PSoC6/ADC_1.h **** * software package from which you obtained this Software ("EULA").
  18:Generated_Source\PSoC6/ADC_1.h **** * If no EULA applies, Cypress hereby grants you a personal, nonexclusive,
  19:Generated_Source\PSoC6/ADC_1.h **** * non-transferable license to copy, modify, and compile the
  20:Generated_Source\PSoC6/ADC_1.h **** * Software source code solely for use in connection with Cypress's
  21:Generated_Source\PSoC6/ADC_1.h **** * integrated circuit products. Any reproduction, modification, translation,
  22:Generated_Source\PSoC6/ADC_1.h **** * compilation, or representation of this Software except as specified
  23:Generated_Source\PSoC6/ADC_1.h **** * above is prohibited without the express written permission of Cypress.
  24:Generated_Source\PSoC6/ADC_1.h **** * Disclaimer: THIS SOFTWARE IS PROVIDED AS-IS, WITH NO
  25:Generated_Source\PSoC6/ADC_1.h **** * WARRANTY OF ANY KIND, EXPRESS OR IMPLIED, INCLUDING,
  26:Generated_Source\PSoC6/ADC_1.h **** * BUT NOT LIMITED TO, NONINFRINGEMENT, IMPLIED
  27:Generated_Source\PSoC6/ADC_1.h **** * WARRANTIES OF MERCHANTABILITY AND FITNESS FOR A
  28:Generated_Source\PSoC6/ADC_1.h **** * PARTICULAR PURPOSE. Cypress reserves the right to make
  29:Generated_Source\PSoC6/ADC_1.h **** * changes to the Software without notice. Cypress does not assume any
  30:Generated_Source\PSoC6/ADC_1.h **** * liability arising out of the application or use of the Software or any
  31:Generated_Source\PSoC6/ADC_1.h **** * product or circuit described in the Software. Cypress does not
  32:Generated_Source\PSoC6/ADC_1.h **** * authorize its products for use in any products where a malfunction or
  33:Generated_Source\PSoC6/ADC_1.h **** * failure of the Cypress product may reasonably be expected to result in
  34:Generated_Source\PSoC6/ADC_1.h **** * significant property damage, injury or death ("High Risk Product"). By
  35:Generated_Source\PSoC6/ADC_1.h **** * including Cypress's product in a High Risk Product, the manufacturer
  36:Generated_Source\PSoC6/ADC_1.h **** * of such system or application assumes all risk of such use and in doing
  37:Generated_Source\PSoC6/ADC_1.h **** * so agrees to indemnify Cypress against all liability.
  38:Generated_Source\PSoC6/ADC_1.h **** *******************************************************************************/
  39:Generated_Source\PSoC6/ADC_1.h **** #if !defined(CY_ADC_1_H)
  40:Generated_Source\PSoC6/ADC_1.h **** #define CY_ADC_1_H
ARM GAS  C:\Users\43479\AppData\Local\Temp\ccqwRonb.s 			page 19


  41:Generated_Source\PSoC6/ADC_1.h **** 
  42:Generated_Source\PSoC6/ADC_1.h **** #include <cy_device_headers.h>
  43:Generated_Source\PSoC6/ADC_1.h **** #include <sar/cy_sar.h>
  44:Generated_Source\PSoC6/ADC_1.h **** 
  45:Generated_Source\PSoC6/ADC_1.h **** #define ADC_1_VREF_ROUTED                  ((0) == 1u)
  46:Generated_Source\PSoC6/ADC_1.h **** #if (ADC_1_VREF_ROUTED)
  47:Generated_Source\PSoC6/ADC_1.h **** #include "ADC_1_vrefAMux.h"
  48:Generated_Source\PSoC6/ADC_1.h **** #endif
  49:Generated_Source\PSoC6/ADC_1.h **** 
  50:Generated_Source\PSoC6/ADC_1.h **** #define ADC_1_CLOCK_INTERNAL               ((1) == 1u)
  51:Generated_Source\PSoC6/ADC_1.h **** #if (ADC_1_CLOCK_INTERNAL)
  52:Generated_Source\PSoC6/ADC_1.h **** #include "ADC_1_intSarClock.h"
  53:Generated_Source\PSoC6/ADC_1.h **** #endif /* ADC_1_CLOCK_INTERNAL */
  54:Generated_Source\PSoC6/ADC_1.h **** 
  55:Generated_Source\PSoC6/ADC_1.h **** /**
  56:Generated_Source\PSoC6/ADC_1.h **** * \addtogroup group_structures
  57:Generated_Source\PSoC6/ADC_1.h **** *
  58:Generated_Source\PSoC6/ADC_1.h **** */
  59:Generated_Source\PSoC6/ADC_1.h **** typedef struct
  60:Generated_Source\PSoC6/ADC_1.h **** {
  61:Generated_Source\PSoC6/ADC_1.h ****     uint32_t channelBase;                   /* Start of channels for the configuration */
  62:Generated_Source\PSoC6/ADC_1.h ****     uint32_t numChannels;                   /* Number of channels in the configuration */
  63:Generated_Source\PSoC6/ADC_1.h ****     const cy_stc_sar_config_t *hwConfigStc; /* PDL structure */
  64:Generated_Source\PSoC6/ADC_1.h ****     uint32_t miscConfig;                    /* Miscellaneous configuration bits broken down as foll
  65:Generated_Source\PSoC6/ADC_1.h ****                                             [0] - Freerunning: Set if the sample mode is freerunnin
  66:Generated_Source\PSoC6/ADC_1.h ****                                             [2] - Mux Switch 0: Set when VSSA is used for the neg i
  67:Generated_Source\PSoC6/ADC_1.h ****                                             */
  68:Generated_Source\PSoC6/ADC_1.h **** #if (ADC_1_CLOCK_INTERNAL)
  69:Generated_Source\PSoC6/ADC_1.h ****     uint32_t clkDivider;                    /* Clock divider */
  70:Generated_Source\PSoC6/ADC_1.h **** #endif /* ADC_1_CLOCK_INTERNAL */
  71:Generated_Source\PSoC6/ADC_1.h **** 
  72:Generated_Source\PSoC6/ADC_1.h **** } ADC_1_CONFIG_STRUCT;
  73:Generated_Source\PSoC6/ADC_1.h **** /** @} structures */
  74:Generated_Source\PSoC6/ADC_1.h **** 
  75:Generated_Source\PSoC6/ADC_1.h **** /*******************************************************************************
  76:Generated_Source\PSoC6/ADC_1.h **** * Function Prototypes
  77:Generated_Source\PSoC6/ADC_1.h **** *******************************************************************************/
  78:Generated_Source\PSoC6/ADC_1.h **** void ADC_1_SelectConfig(uint32_t config, uint32_t restart);
  79:Generated_Source\PSoC6/ADC_1.h **** void ADC_1_InitConfig(const ADC_1_CONFIG_STRUCT *config);
  80:Generated_Source\PSoC6/ADC_1.h **** void ADC_1_Init(void);
  81:Generated_Source\PSoC6/ADC_1.h **** __STATIC_INLINE void ADC_1_Enable(void);
  82:Generated_Source\PSoC6/ADC_1.h **** 
  83:Generated_Source\PSoC6/ADC_1.h **** /**
  84:Generated_Source\PSoC6/ADC_1.h **** * \addtogroup group_general
  85:Generated_Source\PSoC6/ADC_1.h **** * @{
  86:Generated_Source\PSoC6/ADC_1.h **** */
  87:Generated_Source\PSoC6/ADC_1.h **** void ADC_1_Start(void);
  88:Generated_Source\PSoC6/ADC_1.h **** void ADC_1_StartEx(cy_israddress userIsr);
  89:Generated_Source\PSoC6/ADC_1.h **** __STATIC_INLINE void ADC_1_Stop(void);
  90:Generated_Source\PSoC6/ADC_1.h **** void ADC_1_StartConvert(void);
  91:Generated_Source\PSoC6/ADC_1.h **** __STATIC_INLINE void ADC_1_StopConvert(void);
  92:Generated_Source\PSoC6/ADC_1.h **** void ADC_1_SetConvertMode(cy_en_sar_start_convert_sel_t mode);
  93:Generated_Source\PSoC6/ADC_1.h **** void ADC_1_SetEosMask(uint32_t mask);
  94:Generated_Source\PSoC6/ADC_1.h **** uint32_t ADC_1_IsEndConversion(cy_en_sar_return_mode_t retMode);
  95:Generated_Source\PSoC6/ADC_1.h **** __STATIC_INLINE int16_t ADC_1_GetResult16(uint32_t chan);
  96:Generated_Source\PSoC6/ADC_1.h **** __STATIC_INLINE int32_t ADC_1_GetResult32(uint32_t chan);
  97:Generated_Source\PSoC6/ADC_1.h **** __STATIC_INLINE void ADC_1_SetLowLimit(uint32_t lowLimit);
ARM GAS  C:\Users\43479\AppData\Local\Temp\ccqwRonb.s 			page 20


  98:Generated_Source\PSoC6/ADC_1.h **** __STATIC_INLINE void ADC_1_SetHighLimit(uint32_t highLimit);
  99:Generated_Source\PSoC6/ADC_1.h **** __STATIC_INLINE void ADC_1_SetLimitMask(uint32_t limitMask);
 100:Generated_Source\PSoC6/ADC_1.h **** __STATIC_INLINE void ADC_1_SetSatMask(uint32_t satMask);
 101:Generated_Source\PSoC6/ADC_1.h **** __STATIC_INLINE cy_en_sar_status_t ADC_1_SetOffset(uint32_t chan, int16_t offset);
 102:Generated_Source\PSoC6/ADC_1.h **** __STATIC_INLINE cy_en_sar_status_t ADC_1_SetGain(uint32_t chan, int32_t adcGain);
 103:Generated_Source\PSoC6/ADC_1.h **** __STATIC_INLINE float32_t ADC_1_CountsTo_Volts(uint32_t chan, int16_t adcCounts);
 104:Generated_Source\PSoC6/ADC_1.h **** __STATIC_INLINE int16_t ADC_1_CountsTo_mVolts(uint32_t chan, int16_t adcCounts);
 105:Generated_Source\PSoC6/ADC_1.h **** __STATIC_INLINE int32_t ADC_1_CountsTo_uVolts(uint32_t chan, int16_t adcCounts);
 106:Generated_Source\PSoC6/ADC_1.h **** 
 107:Generated_Source\PSoC6/ADC_1.h **** /** @} general */
 108:Generated_Source\PSoC6/ADC_1.h **** 
 109:Generated_Source\PSoC6/ADC_1.h **** void ADC_1_SetChanMask(uint32_t enableMask);
 110:Generated_Source\PSoC6/ADC_1.h **** 
 111:Generated_Source\PSoC6/ADC_1.h **** /**
 112:Generated_Source\PSoC6/ADC_1.h **** * \addtogroup group_power
 113:Generated_Source\PSoC6/ADC_1.h **** * @{
 114:Generated_Source\PSoC6/ADC_1.h **** */
 115:Generated_Source\PSoC6/ADC_1.h **** __STATIC_INLINE void ADC_1_Sleep(void);
 116:Generated_Source\PSoC6/ADC_1.h **** __STATIC_INLINE void ADC_1_Wakeup(void);
 117:Generated_Source\PSoC6/ADC_1.h **** 
 118:Generated_Source\PSoC6/ADC_1.h **** /** @} power */
 119:Generated_Source\PSoC6/ADC_1.h **** 
 120:Generated_Source\PSoC6/ADC_1.h **** /**
 121:Generated_Source\PSoC6/ADC_1.h **** * \addtogroup group_interrupt
 122:Generated_Source\PSoC6/ADC_1.h **** * @{
 123:Generated_Source\PSoC6/ADC_1.h **** */
 124:Generated_Source\PSoC6/ADC_1.h **** void ADC_1_ISR(void);
 125:Generated_Source\PSoC6/ADC_1.h **** void ADC_1_IRQ_Enable(void);
 126:Generated_Source\PSoC6/ADC_1.h **** void ADC_1_IRQ_Disable(void);
 127:Generated_Source\PSoC6/ADC_1.h **** 
 128:Generated_Source\PSoC6/ADC_1.h **** /** @} interrupt */
 129:Generated_Source\PSoC6/ADC_1.h **** 
 130:Generated_Source\PSoC6/ADC_1.h **** /*******************************************************************************
 131:Generated_Source\PSoC6/ADC_1.h ****                                   Parameters
 132:Generated_Source\PSoC6/ADC_1.h **** The parameters that are set in the customizer are redefined as constants here.
 133:Generated_Source\PSoC6/ADC_1.h **** *******************************************************************************/
 134:Generated_Source\PSoC6/ADC_1.h **** 
 135:Generated_Source\PSoC6/ADC_1.h **** /*  Sample Mode setting constants */
 136:Generated_Source\PSoC6/ADC_1.h **** #define ADC_1_TOTAL_CONFIGS                (1ul)
 137:Generated_Source\PSoC6/ADC_1.h **** 
 138:Generated_Source\PSoC6/ADC_1.h **** /* ************************************************************************** */
 139:Generated_Source\PSoC6/ADC_1.h **** /* Begin configuration 0 customizer defines                                   */
 140:Generated_Source\PSoC6/ADC_1.h **** /* ************************************************************************** */
 141:Generated_Source\PSoC6/ADC_1.h **** 
 142:Generated_Source\PSoC6/ADC_1.h **** #define ADC_1_CFG0_SAMPLE_RATE             (100000)
 143:Generated_Source\PSoC6/ADC_1.h **** #define ADC_1_CFG0_CHANNEL_BASE            (0u)
 144:Generated_Source\PSoC6/ADC_1.h **** #define ADC_1_CFG0_CHANNEL_COUNT           (1u)
 145:Generated_Source\PSoC6/ADC_1.h **** #define ADC_1_CFG0_VREF_SEL_MASK           (0x70u)
 146:Generated_Source\PSoC6/ADC_1.h **** #define ADC_1_CFG0_NOMINAL_CLOCK_FREQ      (15000000u)
 147:Generated_Source\PSoC6/ADC_1.h **** #define ADC_1_CFG0_CHANNEL_EN              (0x1u)
 148:Generated_Source\PSoC6/ADC_1.h **** 
 149:Generated_Source\PSoC6/ADC_1.h **** /* Sample Control Register */
 150:Generated_Source\PSoC6/ADC_1.h **** #define ADC_1_CFG0_SINGLE_ENDED_FORMAT     (0uL)
 151:Generated_Source\PSoC6/ADC_1.h **** #define ADC_1_CFG0_DIFFERENTIAL_FORMAT     (1uL)
 152:Generated_Source\PSoC6/ADC_1.h **** #define ADC_1_CFG0_SAMPLES_AVERAGED        (2uL)
 153:Generated_Source\PSoC6/ADC_1.h **** #define ADC_1_CFG0_RANGE_INTR_MASK         (0x0u)
 154:Generated_Source\PSoC6/ADC_1.h **** #define ADC_1_CFG0_SATURATE_INTR_MASK      (0x0u)
ARM GAS  C:\Users\43479\AppData\Local\Temp\ccqwRonb.s 			page 21


 155:Generated_Source\PSoC6/ADC_1.h **** #define ADC_1_CFG0_VNEG_INPUT_SEL          (7)
 156:Generated_Source\PSoC6/ADC_1.h **** #define ADC_1_CFG0_SINGLE_PRESENT          (0)
 157:Generated_Source\PSoC6/ADC_1.h **** #define ADC_1_CFG0_VREF_MV_VALUE           (3300)
 158:Generated_Source\PSoC6/ADC_1.h **** #define ADC_1_CFG0_APERTURE_TIME0          (4uL)
 159:Generated_Source\PSoC6/ADC_1.h **** #define ADC_1_CFG0_APERTURE_TIME1          (2uL)
 160:Generated_Source\PSoC6/ADC_1.h **** #define ADC_1_CFG0_APERTURE_TIME2          (2uL)
 161:Generated_Source\PSoC6/ADC_1.h **** #define ADC_1_CFG0_APERTURE_TIME3          (2uL)
 162:Generated_Source\PSoC6/ADC_1.h **** #define ADC_1_CFG0_FREERUNNING             (0u)
 163:Generated_Source\PSoC6/ADC_1.h **** #define ADC_1_CFG0_AVGERAGING_MODE         (1uL)
 164:Generated_Source\PSoC6/ADC_1.h **** #define ADC_1_CFG0_LOW_LIMIT               (497u)
 165:Generated_Source\PSoC6/ADC_1.h **** #define ADC_1_CFG0_HIGH_LIMIT              (3584u)
 166:Generated_Source\PSoC6/ADC_1.h **** #define ADC_1_CFG0_RANGE_COND              (0uL)
 167:Generated_Source\PSoC6/ADC_1.h **** #define ADC_1_CFG0_USE_SOC                 (0uL)
 168:Generated_Source\PSoC6/ADC_1.h **** #define ADC_1_CFG0_VREF_PWR                (2uL)
 169:Generated_Source\PSoC6/ADC_1.h **** #define ADC_1_CFG0_COMP_PWR                (3uL)
 170:Generated_Source\PSoC6/ADC_1.h **** #define ADC_1_CFG0_COMP_DLY                (3uL)
 171:Generated_Source\PSoC6/ADC_1.h **** 
 172:Generated_Source\PSoC6/ADC_1.h **** /* Clock parameters*/
 173:Generated_Source\PSoC6/ADC_1.h **** #if (ADC_1_CLOCK_INTERNAL)
 174:Generated_Source\PSoC6/ADC_1.h ****     #define ADC_1_CFG0_CLOCKDIVIDER        (((CYDEV_CLK_PERICLK__HZ) / (ADC_1_CFG0_NOMINAL_CLOCK_FR
 175:Generated_Source\PSoC6/ADC_1.h **** #endif /* (ADC_1_CLOCK_INTERNAL) */
 176:Generated_Source\PSoC6/ADC_1.h **** 
 177:Generated_Source\PSoC6/ADC_1.h **** /* ************************************************************************** */
 178:Generated_Source\PSoC6/ADC_1.h **** /* End configuration 0 customizer defines                                     */
 179:Generated_Source\PSoC6/ADC_1.h **** /* ************************************************************************** */
 180:Generated_Source\PSoC6/ADC_1.h **** 
 181:Generated_Source\PSoC6/ADC_1.h **** /* ************************************************************************** */
 182:Generated_Source\PSoC6/ADC_1.h **** /* Begin configuration 1 customizer defines                                   */
 183:Generated_Source\PSoC6/ADC_1.h **** /* ************************************************************************** */
 184:Generated_Source\PSoC6/ADC_1.h **** 
 185:Generated_Source\PSoC6/ADC_1.h **** #if(ADC_1_TOTAL_CONFIGS > 1)
 186:Generated_Source\PSoC6/ADC_1.h ****     #define ADC_1_CFG1_SAMPLE_RATE             ()
 187:Generated_Source\PSoC6/ADC_1.h ****     #define ADC_1_CFG1_CHANNEL_BASE            (u)
 188:Generated_Source\PSoC6/ADC_1.h ****     #define ADC_1_CFG1_CHANNEL_COUNT           (u)
 189:Generated_Source\PSoC6/ADC_1.h ****     #define ADC_1_CFG1_VREF_SEL_MASK           (u)
 190:Generated_Source\PSoC6/ADC_1.h ****     #define ADC_1_CFG1_NOMINAL_CLOCK_FREQ      (u)
 191:Generated_Source\PSoC6/ADC_1.h ****     #define ADC_1_CFG1_CHANNEL_EN              (u)
 192:Generated_Source\PSoC6/ADC_1.h **** 
 193:Generated_Source\PSoC6/ADC_1.h ****     /* Sample Control Register */
 194:Generated_Source\PSoC6/ADC_1.h ****     #define ADC_1_CFG1_SINGLE_ENDED_FORMAT     (uL)
 195:Generated_Source\PSoC6/ADC_1.h ****     #define ADC_1_CFG1_DIFFERENTIAL_FORMAT     (uL)
 196:Generated_Source\PSoC6/ADC_1.h ****     #define ADC_1_CFG1_SAMPLES_AVERAGED        (uL)
 197:Generated_Source\PSoC6/ADC_1.h ****     #define ADC_1_CFG1_RANGE_INTR_MASK         (u)
 198:Generated_Source\PSoC6/ADC_1.h ****     #define ADC_1_CFG1_SATURATE_INTR_MASK      (u)
 199:Generated_Source\PSoC6/ADC_1.h ****     #define ADC_1_CFG1_VNEG_INPUT_SEL          ()
 200:Generated_Source\PSoC6/ADC_1.h ****     #define ADC_1_CFG1_SINGLE_PRESENT          ()
 201:Generated_Source\PSoC6/ADC_1.h ****     #define ADC_1_CFG1_VREF_MV_VALUE           ()
 202:Generated_Source\PSoC6/ADC_1.h ****     #define ADC_1_CFG1_APERTURE_TIME0          (uL)
 203:Generated_Source\PSoC6/ADC_1.h ****     #define ADC_1_CFG1_APERTURE_TIME1          (uL)
 204:Generated_Source\PSoC6/ADC_1.h ****     #define ADC_1_CFG1_APERTURE_TIME2          (uL)
 205:Generated_Source\PSoC6/ADC_1.h ****     #define ADC_1_CFG1_APERTURE_TIME3          (uL)
 206:Generated_Source\PSoC6/ADC_1.h ****     #define ADC_1_CFG1_FREERUNNING             (u)
 207:Generated_Source\PSoC6/ADC_1.h ****     #define ADC_1_CFG1_AVGERAGING_MODE         (uL)
 208:Generated_Source\PSoC6/ADC_1.h ****     #define ADC_1_CFG1_LOW_LIMIT               (u)
 209:Generated_Source\PSoC6/ADC_1.h ****     #define ADC_1_CFG1_HIGH_LIMIT              (u)
 210:Generated_Source\PSoC6/ADC_1.h ****     #define ADC_1_CFG1_RANGE_COND              (uL)
 211:Generated_Source\PSoC6/ADC_1.h ****     #define ADC_1_CFG1_USE_SOC                 (0uL)
ARM GAS  C:\Users\43479\AppData\Local\Temp\ccqwRonb.s 			page 22


 212:Generated_Source\PSoC6/ADC_1.h ****     #define ADC_1_CFG1_VREF_PWR                (uL)
 213:Generated_Source\PSoC6/ADC_1.h ****     #define ADC_1_CFG1_COMP_PWR                (uL)
 214:Generated_Source\PSoC6/ADC_1.h ****     #define ADC_1_CFG1_COMP_DLY                (uL)
 215:Generated_Source\PSoC6/ADC_1.h **** 
 216:Generated_Source\PSoC6/ADC_1.h ****     /* Clock parameters*/
 217:Generated_Source\PSoC6/ADC_1.h ****     #if (ADC_1_CLOCK_INTERNAL)
 218:Generated_Source\PSoC6/ADC_1.h ****         #define ADC_1_CFG1_CLOCKDIVIDER        (((CYDEV_CLK_PERICLK__HZ) / (ADC_1_CFG1_NOMINAL_CLOC
 219:Generated_Source\PSoC6/ADC_1.h ****     #endif /* (ADC_1_CLOCK_INTERNAL) */
 220:Generated_Source\PSoC6/ADC_1.h **** #endif /* #if(ADC_1_TOTAL_CONFIGS > 1) */
 221:Generated_Source\PSoC6/ADC_1.h **** 
 222:Generated_Source\PSoC6/ADC_1.h **** /* ************************************************************************** */
 223:Generated_Source\PSoC6/ADC_1.h **** /* End configuration 1 customizer defines                                     */
 224:Generated_Source\PSoC6/ADC_1.h **** /* ************************************************************************** */
 225:Generated_Source\PSoC6/ADC_1.h **** 
 226:Generated_Source\PSoC6/ADC_1.h **** /* ************************************************************************** */
 227:Generated_Source\PSoC6/ADC_1.h **** /* Begin configuration 2 customizer defines                                         */
 228:Generated_Source\PSoC6/ADC_1.h **** /* ************************************************************************** */
 229:Generated_Source\PSoC6/ADC_1.h **** 
 230:Generated_Source\PSoC6/ADC_1.h **** #if(ADC_1_TOTAL_CONFIGS > 2)
 231:Generated_Source\PSoC6/ADC_1.h ****     #define ADC_1_CFG2_SAMPLE_RATE             ()
 232:Generated_Source\PSoC6/ADC_1.h ****     #define ADC_1_CFG2_CHANNEL_BASE            (u)
 233:Generated_Source\PSoC6/ADC_1.h ****     #define ADC_1_CFG2_CHANNEL_COUNT           (u)
 234:Generated_Source\PSoC6/ADC_1.h ****     #define ADC_1_CFG2_VREF_SEL_MASK           (u)
 235:Generated_Source\PSoC6/ADC_1.h ****     #define ADC_1_CFG2_NOMINAL_CLOCK_FREQ      (u)
 236:Generated_Source\PSoC6/ADC_1.h ****     #define ADC_1_CFG2_CHANNEL_EN              (u)
 237:Generated_Source\PSoC6/ADC_1.h **** 
 238:Generated_Source\PSoC6/ADC_1.h ****     /* Sample Control Register */
 239:Generated_Source\PSoC6/ADC_1.h ****     #define ADC_1_CFG2_SINGLE_ENDED_FORMAT     (uL)
 240:Generated_Source\PSoC6/ADC_1.h ****     #define ADC_1_CFG2_DIFFERENTIAL_FORMAT     (uL)
 241:Generated_Source\PSoC6/ADC_1.h ****     #define ADC_1_CFG2_SAMPLES_AVERAGED        (uL)
 242:Generated_Source\PSoC6/ADC_1.h ****     #define ADC_1_CFG2_RANGE_INTR_MASK         (u)
 243:Generated_Source\PSoC6/ADC_1.h ****     #define ADC_1_CFG2_SATURATE_INTR_MASK      (u)
 244:Generated_Source\PSoC6/ADC_1.h ****     #define ADC_1_CFG2_VNEG_INPUT_SEL          ()
 245:Generated_Source\PSoC6/ADC_1.h ****     #define ADC_1_CFG2_SINGLE_PRESENT          ()
 246:Generated_Source\PSoC6/ADC_1.h ****     #define ADC_1_CFG2_VREF_MV_VALUE           ()
 247:Generated_Source\PSoC6/ADC_1.h ****     #define ADC_1_CFG2_APERTURE_TIME0          (uL)
 248:Generated_Source\PSoC6/ADC_1.h ****     #define ADC_1_CFG2_APERTURE_TIME1          (uL)
 249:Generated_Source\PSoC6/ADC_1.h ****     #define ADC_1_CFG2_APERTURE_TIME2          (uL)
 250:Generated_Source\PSoC6/ADC_1.h ****     #define ADC_1_CFG2_APERTURE_TIME3          (uL)
 251:Generated_Source\PSoC6/ADC_1.h ****     #define ADC_1_CFG2_FREERUNNING             (u)
 252:Generated_Source\PSoC6/ADC_1.h ****     #define ADC_1_CFG2_AVGERAGING_MODE         (uL)
 253:Generated_Source\PSoC6/ADC_1.h ****     #define ADC_1_CFG2_LOW_LIMIT               (u)
 254:Generated_Source\PSoC6/ADC_1.h ****     #define ADC_1_CFG2_HIGH_LIMIT              (u)
 255:Generated_Source\PSoC6/ADC_1.h ****     #define ADC_1_CFG2_RANGE_COND              (uL)
 256:Generated_Source\PSoC6/ADC_1.h ****     #define ADC_1_CFG2_USE_SOC                 (0uL)
 257:Generated_Source\PSoC6/ADC_1.h ****     #define ADC_1_CFG2_VREF_PWR                (uL)
 258:Generated_Source\PSoC6/ADC_1.h ****     #define ADC_1_CFG2_COMP_PWR                (uL)
 259:Generated_Source\PSoC6/ADC_1.h ****     #define ADC_1_CFG2_COMP_DLY                (uL)
 260:Generated_Source\PSoC6/ADC_1.h **** 
 261:Generated_Source\PSoC6/ADC_1.h ****     /* Clock parameters*/
 262:Generated_Source\PSoC6/ADC_1.h ****     #if (ADC_1_CLOCK_INTERNAL)
 263:Generated_Source\PSoC6/ADC_1.h ****         #define ADC_1_CFG2_CLOCKDIVIDER        (((CYDEV_CLK_PERICLK__HZ) / (ADC_1_CFG2_NOMINAL_CLOC
 264:Generated_Source\PSoC6/ADC_1.h ****     #endif /* (ADC_1_CLOCK_INTERNAL) */
 265:Generated_Source\PSoC6/ADC_1.h **** #endif /* (ADC_1_TOTAL_CONFIGS > 2) */
 266:Generated_Source\PSoC6/ADC_1.h **** 
 267:Generated_Source\PSoC6/ADC_1.h **** 
 268:Generated_Source\PSoC6/ADC_1.h **** /* ************************************************************************** */
ARM GAS  C:\Users\43479\AppData\Local\Temp\ccqwRonb.s 			page 23


 269:Generated_Source\PSoC6/ADC_1.h **** /* End configuration 2 customizer defines                                     */
 270:Generated_Source\PSoC6/ADC_1.h **** /* ************************************************************************** */
 271:Generated_Source\PSoC6/ADC_1.h **** 
 272:Generated_Source\PSoC6/ADC_1.h **** /* ************************************************************************** */
 273:Generated_Source\PSoC6/ADC_1.h **** /* Begin configuration 3 customizer defines                                   */
 274:Generated_Source\PSoC6/ADC_1.h **** /* ************************************************************************** */
 275:Generated_Source\PSoC6/ADC_1.h **** #if(ADC_1_TOTAL_CONFIGS > 3)
 276:Generated_Source\PSoC6/ADC_1.h ****     #define ADC_1_CFG3_SAMPLE_RATE             ()
 277:Generated_Source\PSoC6/ADC_1.h ****     #define ADC_1_CFG3_CHANNEL_BASE            (u)
 278:Generated_Source\PSoC6/ADC_1.h ****     #define ADC_1_CFG3_CHANNEL_COUNT           (u)
 279:Generated_Source\PSoC6/ADC_1.h ****     #define ADC_1_CFG3_VREF_SEL_MASK           (u)
 280:Generated_Source\PSoC6/ADC_1.h ****     #define ADC_1_CFG3_NOMINAL_CLOCK_FREQ      (u)
 281:Generated_Source\PSoC6/ADC_1.h ****     #define ADC_1_CFG3_CHANNEL_EN              (u)
 282:Generated_Source\PSoC6/ADC_1.h **** 
 283:Generated_Source\PSoC6/ADC_1.h ****     /* Sample Control Register */
 284:Generated_Source\PSoC6/ADC_1.h ****     #define ADC_1_CFG3_SINGLE_ENDED_FORMAT     (uL)
 285:Generated_Source\PSoC6/ADC_1.h ****     #define ADC_1_CFG3_DIFFERENTIAL_FORMAT     (uL)
 286:Generated_Source\PSoC6/ADC_1.h ****     #define ADC_1_CFG3_SAMPLES_AVERAGED        (uL)
 287:Generated_Source\PSoC6/ADC_1.h ****     #define ADC_1_CFG3_RANGE_INTR_MASK         (u)
 288:Generated_Source\PSoC6/ADC_1.h ****     #define ADC_1_CFG3_SATURATE_INTR_MASK      (u)
 289:Generated_Source\PSoC6/ADC_1.h ****     #define ADC_1_CFG3_VNEG_INPUT_SEL          ()
 290:Generated_Source\PSoC6/ADC_1.h ****     #define ADC_1_CFG3_SINGLE_PRESENT          ()
 291:Generated_Source\PSoC6/ADC_1.h ****     #define ADC_1_CFG3_VREF_MV_VALUE           ()
 292:Generated_Source\PSoC6/ADC_1.h ****     #define ADC_1_CFG3_APERTURE_TIME0          (uL)
 293:Generated_Source\PSoC6/ADC_1.h ****     #define ADC_1_CFG3_APERTURE_TIME1          (uL)
 294:Generated_Source\PSoC6/ADC_1.h ****     #define ADC_1_CFG3_APERTURE_TIME2          (uL)
 295:Generated_Source\PSoC6/ADC_1.h ****     #define ADC_1_CFG3_APERTURE_TIME3          (uL)
 296:Generated_Source\PSoC6/ADC_1.h ****     #define ADC_1_CFG3_FREERUNNING             (u)
 297:Generated_Source\PSoC6/ADC_1.h ****     #define ADC_1_CFG3_AVGERAGING_MODE         (uL)
 298:Generated_Source\PSoC6/ADC_1.h ****     #define ADC_1_CFG3_LOW_LIMIT               (u)
 299:Generated_Source\PSoC6/ADC_1.h ****     #define ADC_1_CFG3_HIGH_LIMIT              (u)
 300:Generated_Source\PSoC6/ADC_1.h ****     #define ADC_1_CFG3_RANGE_COND              (uL)
 301:Generated_Source\PSoC6/ADC_1.h ****     #define ADC_1_CFG3_USE_SOC                 (0uL)
 302:Generated_Source\PSoC6/ADC_1.h ****     #define ADC_1_CFG3_VREF_PWR                (uL)
 303:Generated_Source\PSoC6/ADC_1.h ****     #define ADC_1_CFG3_COMP_PWR                (uL)
 304:Generated_Source\PSoC6/ADC_1.h ****     #define ADC_1_CFG3_COMP_DLY                (uL)
 305:Generated_Source\PSoC6/ADC_1.h **** 
 306:Generated_Source\PSoC6/ADC_1.h ****     /* Clock parameters*/
 307:Generated_Source\PSoC6/ADC_1.h ****     #if (ADC_1_CLOCK_INTERNAL)
 308:Generated_Source\PSoC6/ADC_1.h ****         #define ADC_1_CFG3_CLOCKDIVIDER        (((CYDEV_CLK_PERICLK__HZ) / (ADC_1_CFG3_NOMINAL_CLOC
 309:Generated_Source\PSoC6/ADC_1.h ****     #endif /* (ADC_1_CLOCK_INTERNAL) */
 310:Generated_Source\PSoC6/ADC_1.h **** #endif /* (ADC_1_TOTAL_CONFIGS > 3) */
 311:Generated_Source\PSoC6/ADC_1.h **** 
 312:Generated_Source\PSoC6/ADC_1.h **** /* ************************************************************************** */
 313:Generated_Source\PSoC6/ADC_1.h **** /* End configuration 3 customizer defines                                     */
 314:Generated_Source\PSoC6/ADC_1.h **** /* ************************************************************************** */
 315:Generated_Source\PSoC6/ADC_1.h **** 
 316:Generated_Source\PSoC6/ADC_1.h **** #define ADC_1_DEFAULT_SAMPLE_MODE_SEL      (0u)
 317:Generated_Source\PSoC6/ADC_1.h **** #define ADC_1_FREERUNNING                  (1u)
 318:Generated_Source\PSoC6/ADC_1.h **** #define ADC_1_HARDWARESOC                  (1u)
 319:Generated_Source\PSoC6/ADC_1.h **** #define ADC_1_NEG_SEL_VSSA_KELVIN          (0x0uL)
 320:Generated_Source\PSoC6/ADC_1.h **** #define ADC_1_NEG_SEL_VREF                 (0x7uL)
 321:Generated_Source\PSoC6/ADC_1.h **** #define ADC_1_PWR_CTRL_VREF_NORMAL_PWR     (0x0uL)
 322:Generated_Source\PSoC6/ADC_1.h **** 
 323:Generated_Source\PSoC6/ADC_1.h **** /** ADC_1_TOTAL_CHANNELS_NUM
 324:Generated_Source\PSoC6/ADC_1.h **** * This constant represents the number of input channels available for scanning.
 325:Generated_Source\PSoC6/ADC_1.h **** */
ARM GAS  C:\Users\43479\AppData\Local\Temp\ccqwRonb.s 			page 24


 326:Generated_Source\PSoC6/ADC_1.h **** #define ADC_1_TOTAL_CHANNELS_NUM           (1u)
 327:Generated_Source\PSoC6/ADC_1.h **** 
 328:Generated_Source\PSoC6/ADC_1.h **** /*******************************************************************************
 329:Generated_Source\PSoC6/ADC_1.h **** *    Variables with External Linkage
 330:Generated_Source\PSoC6/ADC_1.h **** *******************************************************************************/
 331:Generated_Source\PSoC6/ADC_1.h **** /**
 332:Generated_Source\PSoC6/ADC_1.h **** * \addtogroup group_globals
 333:Generated_Source\PSoC6/ADC_1.h **** * Globals are noted in the descriptions of the functions that use globals.
 334:Generated_Source\PSoC6/ADC_1.h **** * They are marked with (R), (W), or (RW) noting whether the variable is read,
 335:Generated_Source\PSoC6/ADC_1.h **** * write, or read/write.
 336:Generated_Source\PSoC6/ADC_1.h **** * @{
 337:Generated_Source\PSoC6/ADC_1.h **** */
 338:Generated_Source\PSoC6/ADC_1.h **** 
 339:Generated_Source\PSoC6/ADC_1.h **** /** ADC_1_initVar
 340:Generated_Source\PSoC6/ADC_1.h **** * The ADC_1_initVar variable is used to indicate
 341:Generated_Source\PSoC6/ADC_1.h **** * initial configuration of this component. The variable is initialized to zero and
 342:Generated_Source\PSoC6/ADC_1.h **** * set to 1 the first time ADC_1_Start() is called. This allows for
 343:Generated_Source\PSoC6/ADC_1.h **** * component initialization without reinitialization in all subsequent calls to the
 344:Generated_Source\PSoC6/ADC_1.h **** * ADC_1_Start() routine.
 345:Generated_Source\PSoC6/ADC_1.h **** *
 346:Generated_Source\PSoC6/ADC_1.h **** * If reinitialization of the component is required, then the ADC_1_Init() function
 347:Generated_Source\PSoC6/ADC_1.h **** * can be called before the ADC_1_Start() or ADC_1_Enable()
 348:Generated_Source\PSoC6/ADC_1.h **** * functions.
 349:Generated_Source\PSoC6/ADC_1.h **** */
 350:Generated_Source\PSoC6/ADC_1.h **** extern uint8_t ADC_1_initVar;
 351:Generated_Source\PSoC6/ADC_1.h **** extern uint8_t ADC_1_selected;
 352:Generated_Source\PSoC6/ADC_1.h **** extern uint32_t ADC_1_currentConfig;
 353:Generated_Source\PSoC6/ADC_1.h **** 
 354:Generated_Source\PSoC6/ADC_1.h **** #define ADC_1_INIT_VAR_INIT_FLAG     (0x01u)
 355:Generated_Source\PSoC6/ADC_1.h **** 
 356:Generated_Source\PSoC6/ADC_1.h **** extern const ADC_1_CONFIG_STRUCT ADC_1_allConfigs[ADC_1_TOTAL_CONFIGS];
 357:Generated_Source\PSoC6/ADC_1.h **** 
 358:Generated_Source\PSoC6/ADC_1.h **** /* SysPm callback structure for deep sleep entry and exit.
 359:Generated_Source\PSoC6/ADC_1.h ****  * Call the Cy_SysPm_RegisterCallback function with this
 360:Generated_Source\PSoC6/ADC_1.h ****  * structure before calling Cy_SysPm_DeepSleep.
 361:Generated_Source\PSoC6/ADC_1.h **** */
 362:Generated_Source\PSoC6/ADC_1.h **** extern cy_stc_syspm_callback_t ADC_1_DeepSleepCallbackStruct;
 363:Generated_Source\PSoC6/ADC_1.h **** 
 364:Generated_Source\PSoC6/ADC_1.h **** /** @} globals */
 365:Generated_Source\PSoC6/ADC_1.h **** 
 366:Generated_Source\PSoC6/ADC_1.h **** /* ************************************************************************** */
 367:Generated_Source\PSoC6/ADC_1.h **** /* *******************Global MUX_SWITCH0 Definitions ************************ */
 368:Generated_Source\PSoC6/ADC_1.h **** /* ************************************************************************** */
 369:Generated_Source\PSoC6/ADC_1.h **** #if(ADC_1_CFG0_VNEG_INPUT_SEL == ADC_1_NEG_SEL_VSSA_KELVIN)
 370:Generated_Source\PSoC6/ADC_1.h ****     /* Do not connect VSSA to VMINUS when one channel in differential mode used */
 371:Generated_Source\PSoC6/ADC_1.h ****     #if((ADC_1_TOTAL_CHANNELS_NUM == 1u) && (ADC_1_CFG0_SINGLE_PRESENT == 0u))
 372:Generated_Source\PSoC6/ADC_1.h ****         #define ADC_1_MUX_SWITCH0_INIT      0u
 373:Generated_Source\PSoC6/ADC_1.h ****     #else    /* multiple channels or one single ended channel */
 374:Generated_Source\PSoC6/ADC_1.h ****         #define ADC_1_MUX_SWITCH0_INIT      1u
 375:Generated_Source\PSoC6/ADC_1.h ****     #endif /* ((ADC_1_TOTAL_CHANNELS_NUM == 1u) && (ADC_1_CFG0_SINGLE_PRESENT == 0u)) */
 376:Generated_Source\PSoC6/ADC_1.h **** #else
 377:Generated_Source\PSoC6/ADC_1.h ****     #define ADC_1_MUX_SWITCH0_INIT          0u
 378:Generated_Source\PSoC6/ADC_1.h **** #endif /* ADC_1_CFG0_VNEG_INPUT_SEL == ADC_1_NEG_SEL_VSSA_KELVIN */
 379:Generated_Source\PSoC6/ADC_1.h **** 
 380:Generated_Source\PSoC6/ADC_1.h **** /* ************************************************************************** */
 381:Generated_Source\PSoC6/ADC_1.h **** /* Begin configuration 0 calculated defines                                   */
 382:Generated_Source\PSoC6/ADC_1.h **** /* ************************************************************************** */
ARM GAS  C:\Users\43479\AppData\Local\Temp\ccqwRonb.s 			page 25


 383:Generated_Source\PSoC6/ADC_1.h **** #define ADC_1_CFG0_SAMPLE_TIME01_INIT \
 384:Generated_Source\PSoC6/ADC_1.h ****         ((ADC_1_CFG0_APERTURE_TIME0 \
 385:Generated_Source\PSoC6/ADC_1.h ****         << SAR_SAMPLE_TIME01_SAMPLE_TIME0_Pos) \
 386:Generated_Source\PSoC6/ADC_1.h ****         | (ADC_1_CFG0_APERTURE_TIME1 \
 387:Generated_Source\PSoC6/ADC_1.h ****         << SAR_SAMPLE_TIME01_SAMPLE_TIME1_Pos))
 388:Generated_Source\PSoC6/ADC_1.h **** 
 389:Generated_Source\PSoC6/ADC_1.h **** #define ADC_1_CFG0_SAMPLE_TIME23_INIT \
 390:Generated_Source\PSoC6/ADC_1.h ****         ((ADC_1_CFG0_APERTURE_TIME2 \
 391:Generated_Source\PSoC6/ADC_1.h ****         << SAR_SAMPLE_TIME23_SAMPLE_TIME2_Pos) \
 392:Generated_Source\PSoC6/ADC_1.h ****         | (ADC_1_CFG0_APERTURE_TIME3 \
 393:Generated_Source\PSoC6/ADC_1.h ****         << SAR_SAMPLE_TIME23_SAMPLE_TIME3_Pos))
 394:Generated_Source\PSoC6/ADC_1.h **** 
 395:Generated_Source\PSoC6/ADC_1.h **** /* Enable soc pin if used */
 396:Generated_Source\PSoC6/ADC_1.h **** #define ADC_1_CFG0_DSI_TRIGGER_EN_INIT \
 397:Generated_Source\PSoC6/ADC_1.h ****         (ADC_1_CFG0_USE_SOC \
 398:Generated_Source\PSoC6/ADC_1.h ****         << SAR_SAMPLE_CTRL_DSI_TRIGGER_EN_Pos)
 399:Generated_Source\PSoC6/ADC_1.h **** 
 400:Generated_Source\PSoC6/ADC_1.h **** /* Set soc operation to edge or level based on sample mode */
 401:Generated_Source\PSoC6/ADC_1.h **** #if(ADC_1_CFG0_FREERUNNING == ADC_1_FREERUNNING)
 402:Generated_Source\PSoC6/ADC_1.h ****     #define ADC_1_CFG0_DSI_TRIGGER_LEVEL_INIT    (SAR_SAMPLE_CTRL_DSI_TRIGGER_LEVEL_Msk)
 403:Generated_Source\PSoC6/ADC_1.h **** #else /* Edge trigger */
 404:Generated_Source\PSoC6/ADC_1.h ****     #define ADC_1_CFG0_DSI_TRIGGER_LEVEL_INIT    (0u)
 405:Generated_Source\PSoC6/ADC_1.h **** #endif /* End ADC_1_CFG0_FREERUNNING == ADC_1_FREERUNNING */
 406:Generated_Source\PSoC6/ADC_1.h **** 
 407:Generated_Source\PSoC6/ADC_1.h **** /* Set SE_NEG_INPUT */
 408:Generated_Source\PSoC6/ADC_1.h **** #if(ADC_1_CFG0_VNEG_INPUT_SEL == ADC_1_NEG_SEL_VSSA_KELVIN)
 409:Generated_Source\PSoC6/ADC_1.h ****     #define ADC_1_CFG0_SE_NEG_INPUT_INIT \
 410:Generated_Source\PSoC6/ADC_1.h ****             ((uint32)(ADC_1_NEG_SEL_VSSA_KELVIN \
 411:Generated_Source\PSoC6/ADC_1.h ****             << SAR_CTRL_NEG_SEL_Pos ))
 412:Generated_Source\PSoC6/ADC_1.h **** #elif(ADC_1_CFG0_VNEG_INPUT_SEL == ADC_1_NEG_SEL_VREF)
 413:Generated_Source\PSoC6/ADC_1.h **** 
 414:Generated_Source\PSoC6/ADC_1.h ****     /* Do not connect VNEG to VREF when one channel in differential mode used */
 415:Generated_Source\PSoC6/ADC_1.h ****     /* Only needed for config 0 since 2+ configs == 2+ channels */
 416:Generated_Source\PSoC6/ADC_1.h ****     #if((ADC_1_CFG0_CHANNEL_COUNT == 1u) && (ADC_1_CFG0_SINGLE_PRESENT == 0u))
 417:Generated_Source\PSoC6/ADC_1.h ****         #define ADC_1_CFG0_SE_NEG_INPUT_INIT     0u
 418:Generated_Source\PSoC6/ADC_1.h ****     #else    /* multiple channels or one single channel */
 419:Generated_Source\PSoC6/ADC_1.h ****         #define ADC_1_CFG0_SE_NEG_INPUT_INIT     (ADC_1_NEG_SEL_VREF \
 420:Generated_Source\PSoC6/ADC_1.h ****                                                             << SAR_CTRL_NEG_SEL_Pos )
 421:Generated_Source\PSoC6/ADC_1.h ****     #endif /* (ADC_1_CFG0_CHANNEL_COUNT == 1u) && (ADC_1_CFG0_CHANNELS_MODE != 0u) */
 422:Generated_Source\PSoC6/ADC_1.h **** #elif (ADC_1_CFG0_SINGLE_PRESENT != 0u)
 423:Generated_Source\PSoC6/ADC_1.h ****     #define ADC_1_CFG0_SE_NEG_INPUT_INIT         ADC_1_CFG0_NEG_OTHER
 424:Generated_Source\PSoC6/ADC_1.h **** #else
 425:Generated_Source\PSoC6/ADC_1.h ****     #define ADC_1_CFG0_SE_NEG_INPUT_INIT         0u
 426:Generated_Source\PSoC6/ADC_1.h **** #endif /* ADC_1_CFG0_VNEG_INPUT_SEL == ADC_1_NEG_SEL_VSSA_KELVIN */
 427:Generated_Source\PSoC6/ADC_1.h **** 
 428:Generated_Source\PSoC6/ADC_1.h **** #if(ADC_1_TOTAL_CHANNELS_NUM > 1u)
 429:Generated_Source\PSoC6/ADC_1.h ****     #define ADC_1_CFG0_NEG_OTHER                 (uint16)((uint16)ADC_1_SARMUX__VNEG0 << SAR_CTRL_N
 430:Generated_Source\PSoC6/ADC_1.h ****     #define ADC_1_CFG0_SWITCH_CONF_INIT          0u
 431:Generated_Source\PSoC6/ADC_1.h **** #else /* Disable SAR sequencer from enabling routing switches in single channel mode */
 432:Generated_Source\PSoC6/ADC_1.h ****     #define ADC_1_CFG0_SWITCH_CONF_INIT          SAR_CTRL_SWITCH_DISABLE_Msk
 433:Generated_Source\PSoC6/ADC_1.h ****     #define ADC_1_CFG0_NEG_OTHER                 0u
 434:Generated_Source\PSoC6/ADC_1.h **** #endif /* ADC_1_CFG0_CHANNEL_COUNT > 1u */
 435:Generated_Source\PSoC6/ADC_1.h **** 
 436:Generated_Source\PSoC6/ADC_1.h **** /* If the SAR is configured for multiple channels, always set SAR_HW_CTRL_NEGVREF to 1 */
 437:Generated_Source\PSoC6/ADC_1.h **** #if(ADC_1_TOTAL_CHANNELS_NUM == 1u)
 438:Generated_Source\PSoC6/ADC_1.h ****     #define ADC_1_CFG0_HW_CTRL_NEGVREF_INIT      0u
 439:Generated_Source\PSoC6/ADC_1.h **** #else
ARM GAS  C:\Users\43479\AppData\Local\Temp\ccqwRonb.s 			page 26


 440:Generated_Source\PSoC6/ADC_1.h ****     #define ADC_1_CFG0_HW_CTRL_NEGVREF_INIT      SAR_CTRL_SAR_HW_CTRL_NEGVREF_Msk
 441:Generated_Source\PSoC6/ADC_1.h **** #endif /* ADC_1_CFG0_CHANNEL_COUNT == 1u */
 442:Generated_Source\PSoC6/ADC_1.h **** 
 443:Generated_Source\PSoC6/ADC_1.h **** #define ADC_1_CFG0_POWER_INIT  (ADC_1_PWR_CTRL_VREF_NORMAL_PWR)
 444:Generated_Source\PSoC6/ADC_1.h **** 
 445:Generated_Source\PSoC6/ADC_1.h **** /* SAMPLE_CTRL initial values */
 446:Generated_Source\PSoC6/ADC_1.h **** #define ADC_1_CFG0_SE_RESULT_FORMAT_INIT \
 447:Generated_Source\PSoC6/ADC_1.h ****         (ADC_1_CFG0_SINGLE_ENDED_FORMAT \
 448:Generated_Source\PSoC6/ADC_1.h ****         << SAR_SAMPLE_CTRL_SINGLE_ENDED_SIGNED_Pos)
 449:Generated_Source\PSoC6/ADC_1.h **** 
 450:Generated_Source\PSoC6/ADC_1.h **** #define ADC_1_CFG0_DIFF_RESULT_FORMAT_INIT \
 451:Generated_Source\PSoC6/ADC_1.h ****         (ADC_1_CFG0_DIFFERENTIAL_FORMAT \
 452:Generated_Source\PSoC6/ADC_1.h ****         << SAR_SAMPLE_CTRL_DIFFERENTIAL_SIGNED_Pos)
 453:Generated_Source\PSoC6/ADC_1.h **** 
 454:Generated_Source\PSoC6/ADC_1.h **** #define ADC_1_CFG0_AVG_SAMPLES_NUM_INIT \
 455:Generated_Source\PSoC6/ADC_1.h ****         (ADC_1_CFG0_SAMPLES_AVERAGED \
 456:Generated_Source\PSoC6/ADC_1.h ****         << SAR_SAMPLE_CTRL_AVG_CNT_Pos)
 457:Generated_Source\PSoC6/ADC_1.h **** 
 458:Generated_Source\PSoC6/ADC_1.h **** /* Combination of Average Mode and Average Shift */
 459:Generated_Source\PSoC6/ADC_1.h **** #define ADC_1_CFG0_AVG_MODE_INIT \
 460:Generated_Source\PSoC6/ADC_1.h ****         (ADC_1_CFG0_AVGERAGING_MODE \
 461:Generated_Source\PSoC6/ADC_1.h ****         << SAR_SAMPLE_CTRL_AVG_SHIFT_Pos)
 462:Generated_Source\PSoC6/ADC_1.h **** 
 463:Generated_Source\PSoC6/ADC_1.h **** #define ADC_1_CFG0_TRIGGER_OUT_INIT      (0u)
 464:Generated_Source\PSoC6/ADC_1.h **** #define ADC_1_CFG0_UAB_SCAN_MODE_INIT    (0u)
 465:Generated_Source\PSoC6/ADC_1.h **** 
 466:Generated_Source\PSoC6/ADC_1.h **** #define ADC_1_CFG0_VREF_POWER_INIT  \
 467:Generated_Source\PSoC6/ADC_1.h ****         (ADC_1_CFG0_VREF_PWR \
 468:Generated_Source\PSoC6/ADC_1.h ****         << SAR_CTRL_PWR_CTRL_VREF_Pos)
 469:Generated_Source\PSoC6/ADC_1.h **** 
 470:Generated_Source\PSoC6/ADC_1.h **** #define ADC_1_CFG0_COMP_PWR_INIT  \
 471:Generated_Source\PSoC6/ADC_1.h ****         (ADC_1_CFG0_COMP_PWR \
 472:Generated_Source\PSoC6/ADC_1.h ****         << SAR_CTRL_COMP_PWR_Pos)
 473:Generated_Source\PSoC6/ADC_1.h **** 
 474:Generated_Source\PSoC6/ADC_1.h **** #define ADC_1_CFG0_COMP_DLY_INIT  \
 475:Generated_Source\PSoC6/ADC_1.h ****         (ADC_1_CFG0_COMP_DLY \
 476:Generated_Source\PSoC6/ADC_1.h ****         << SAR_CTRL_COMP_DLY_Pos)
 477:Generated_Source\PSoC6/ADC_1.h **** 
 478:Generated_Source\PSoC6/ADC_1.h **** #define ADC_1_CFG0_CTRL_INIT  \
 479:Generated_Source\PSoC6/ADC_1.h ****         (ADC_1_CFG0_VREF_POWER_INIT \
 480:Generated_Source\PSoC6/ADC_1.h ****         | ADC_1_CFG0_VREF_SEL_MASK \
 481:Generated_Source\PSoC6/ADC_1.h ****         | ADC_1_CFG0_SE_NEG_INPUT_INIT \
 482:Generated_Source\PSoC6/ADC_1.h ****         | ADC_1_CFG0_HW_CTRL_NEGVREF_INIT \
 483:Generated_Source\PSoC6/ADC_1.h ****         | ADC_1_CFG0_COMP_DLY_INIT \
 484:Generated_Source\PSoC6/ADC_1.h ****         | SAR_CTRL_REFBUF_EN_Msk \
 485:Generated_Source\PSoC6/ADC_1.h ****         | ADC_1_CFG0_COMP_PWR_INIT \
 486:Generated_Source\PSoC6/ADC_1.h ****         | SAR_CTRL_DSI_SYNC_CONFIG_Msk  \
 487:Generated_Source\PSoC6/ADC_1.h ****         | ADC_1_CFG0_SWITCH_CONF_INIT )
 488:Generated_Source\PSoC6/ADC_1.h **** 
 489:Generated_Source\PSoC6/ADC_1.h **** #define ADC_1_CFG0_SAMPLE_CTRL_INIT \
 490:Generated_Source\PSoC6/ADC_1.h ****         (ADC_1_CFG0_SE_RESULT_FORMAT_INIT \
 491:Generated_Source\PSoC6/ADC_1.h ****         | ADC_1_CFG0_DIFF_RESULT_FORMAT_INIT \
 492:Generated_Source\PSoC6/ADC_1.h ****         | ADC_1_CFG0_AVG_SAMPLES_NUM_INIT \
 493:Generated_Source\PSoC6/ADC_1.h ****         | ADC_1_CFG0_AVG_MODE_INIT \
 494:Generated_Source\PSoC6/ADC_1.h ****         | ADC_1_CFG0_DSI_TRIGGER_LEVEL_INIT \
 495:Generated_Source\PSoC6/ADC_1.h ****         | ADC_1_CFG0_DSI_TRIGGER_EN_INIT \
 496:Generated_Source\PSoC6/ADC_1.h ****         | ADC_1_CFG0_UAB_SCAN_MODE_INIT \
ARM GAS  C:\Users\43479\AppData\Local\Temp\ccqwRonb.s 			page 27


 497:Generated_Source\PSoC6/ADC_1.h ****         | SAR_SAMPLE_CTRL_VALID_IGNORE_Msk \
 498:Generated_Source\PSoC6/ADC_1.h ****         | ADC_1_CFG0_TRIGGER_OUT_INIT \
 499:Generated_Source\PSoC6/ADC_1.h ****         | SAR_SAMPLE_CTRL_EOS_DSI_OUT_EN_Msk \
 500:Generated_Source\PSoC6/ADC_1.h **** )
 501:Generated_Source\PSoC6/ADC_1.h **** 
 502:Generated_Source\PSoC6/ADC_1.h **** #define ADC_1_CFG0_RANGE_THRES_INIT \
 503:Generated_Source\PSoC6/ADC_1.h ****         (ADC_1_CFG0_LOW_LIMIT \
 504:Generated_Source\PSoC6/ADC_1.h ****         | (uint32)((uint32)ADC_1_CFG0_HIGH_LIMIT \
 505:Generated_Source\PSoC6/ADC_1.h ****         << SAR_RANGE_THRES_RANGE_HIGH_Pos))
 506:Generated_Source\PSoC6/ADC_1.h **** 
 507:Generated_Source\PSoC6/ADC_1.h **** #define ADC_1_CFG0_RANGE_COND_INIT   (cy_en_sar_range_detect_condition_t)ADC_1_CFG0_RANGE_COND
 508:Generated_Source\PSoC6/ADC_1.h **** 
 509:Generated_Source\PSoC6/ADC_1.h **** /* Misc Config
 510:Generated_Source\PSoC6/ADC_1.h ****     [0] - Freerunning: Set if the sample mode is freerunning
 511:Generated_Source\PSoC6/ADC_1.h **** */
 512:Generated_Source\PSoC6/ADC_1.h **** #define ADC_1_CFG0_MISC_CONFIG_INIT \
 513:Generated_Source\PSoC6/ADC_1.h ****         (ADC_1_CFG0_FREERUNNING)
 514:Generated_Source\PSoC6/ADC_1.h **** 
 515:Generated_Source\PSoC6/ADC_1.h **** /* ************************************************************************** */
 516:Generated_Source\PSoC6/ADC_1.h **** /* End configuration 0 calculated defines                                     */
 517:Generated_Source\PSoC6/ADC_1.h **** /* ************************************************************************** */
 518:Generated_Source\PSoC6/ADC_1.h **** 
 519:Generated_Source\PSoC6/ADC_1.h **** /* ************************************************************************** */
 520:Generated_Source\PSoC6/ADC_1.h **** /* Begin configuration 1 calculated defines                                   */
 521:Generated_Source\PSoC6/ADC_1.h **** /* ************************************************************************** */
 522:Generated_Source\PSoC6/ADC_1.h **** #if(ADC_1_TOTAL_CONFIGS > 1)
 523:Generated_Source\PSoC6/ADC_1.h ****     #define ADC_1_CFG1_SAMPLE_TIME01_INIT \
 524:Generated_Source\PSoC6/ADC_1.h ****             ((ADC_1_CFG1_APERTURE_TIME0 \
 525:Generated_Source\PSoC6/ADC_1.h ****             << SAR_SAMPLE_TIME01_SAMPLE_TIME0_Pos) \
 526:Generated_Source\PSoC6/ADC_1.h ****             | (ADC_1_CFG1_APERTURE_TIME1 \
 527:Generated_Source\PSoC6/ADC_1.h ****             << SAR_SAMPLE_TIME01_SAMPLE_TIME1_Pos))
 528:Generated_Source\PSoC6/ADC_1.h **** 
 529:Generated_Source\PSoC6/ADC_1.h ****     #define ADC_1_CFG1_SAMPLE_TIME23_INIT \
 530:Generated_Source\PSoC6/ADC_1.h ****             ((ADC_1_CFG1_APERTURE_TIME2 \
 531:Generated_Source\PSoC6/ADC_1.h ****             << SAR_SAMPLE_TIME23_SAMPLE_TIME2_Pos) \
 532:Generated_Source\PSoC6/ADC_1.h ****             | (ADC_1_CFG1_APERTURE_TIME3 \
 533:Generated_Source\PSoC6/ADC_1.h ****             << SAR_SAMPLE_TIME23_SAMPLE_TIME3_Pos))
 534:Generated_Source\PSoC6/ADC_1.h **** 
 535:Generated_Source\PSoC6/ADC_1.h ****     /* Enable soc pin if used */
 536:Generated_Source\PSoC6/ADC_1.h ****     #define ADC_1_CFG1_DSI_TRIGGER_EN_INIT \
 537:Generated_Source\PSoC6/ADC_1.h ****             (ADC_1_CFG1_USE_SOC \
 538:Generated_Source\PSoC6/ADC_1.h ****             << SAR_SAMPLE_CTRL_DSI_TRIGGER_EN_Pos)
 539:Generated_Source\PSoC6/ADC_1.h **** 
 540:Generated_Source\PSoC6/ADC_1.h ****     /* Set soc operation to edge or level based on sample mode */
 541:Generated_Source\PSoC6/ADC_1.h ****     #if(ADC_1_CFG1_FREERUNNING == ADC_1_FREERUNNING)
 542:Generated_Source\PSoC6/ADC_1.h ****         #define ADC_1_CFG1_DSI_TRIGGER_LEVEL_INIT    (SAR_SAMPLE_CTRL_DSI_TRIGGER_LEVEL_Msk)
 543:Generated_Source\PSoC6/ADC_1.h ****     #else /* Edge trigger */
 544:Generated_Source\PSoC6/ADC_1.h ****         #define ADC_1_CFG1_DSI_TRIGGER_LEVEL_INIT    (0u)
 545:Generated_Source\PSoC6/ADC_1.h ****     #endif /* End ADC_1_CFG1_FREERUNNING == ADC_1_FREERUNNING */
 546:Generated_Source\PSoC6/ADC_1.h **** 
 547:Generated_Source\PSoC6/ADC_1.h ****     /* Set SE_NEG_INPUT */
 548:Generated_Source\PSoC6/ADC_1.h ****     #if(ADC_1_CFG1_VNEG_INPUT_SEL == ADC_1_NEG_SEL_VSSA_KELVIN)
 549:Generated_Source\PSoC6/ADC_1.h ****         #define ADC_1_CFG1_SE_NEG_INPUT_INIT \
 550:Generated_Source\PSoC6/ADC_1.h ****             ((uint32)(ADC_1_NEG_SEL_VSSA_KELVIN \
 551:Generated_Source\PSoC6/ADC_1.h ****             << SAR_CTRL_NEG_SEL_Pos ))
 552:Generated_Source\PSoC6/ADC_1.h ****     #elif(ADC_1_CFG1_VNEG_INPUT_SEL == ADC_1_NEG_SEL_VREF)
 553:Generated_Source\PSoC6/ADC_1.h ****         #define ADC_1_CFG1_SE_NEG_INPUT_INIT     (ADC_1_NEG_SEL_VREF \
ARM GAS  C:\Users\43479\AppData\Local\Temp\ccqwRonb.s 			page 28


 554:Generated_Source\PSoC6/ADC_1.h ****                                                             << SAR_CTRL_NEG_SEL_Pos )
 555:Generated_Source\PSoC6/ADC_1.h ****     #elif (ADC_1_CFG1_SINGLE_PRESENT != 0u)
 556:Generated_Source\PSoC6/ADC_1.h ****         #define ADC_1_CFG1_SE_NEG_INPUT_INIT         ADC_1_CFG1_NEG_OTHER
 557:Generated_Source\PSoC6/ADC_1.h ****     #else
 558:Generated_Source\PSoC6/ADC_1.h ****         #define ADC_1_CFG1_SE_NEG_INPUT_INIT         0u
 559:Generated_Source\PSoC6/ADC_1.h ****     #endif /* ADC_1_CFG1_VNEG_INPUT_SEL == ADC_1_NEG_SEL_VSSA_KELVIN */
 560:Generated_Source\PSoC6/ADC_1.h **** 
 561:Generated_Source\PSoC6/ADC_1.h ****     #define ADC_1_CFG1_NEG_OTHER                 (uint16)((uint16)ADC_1_SARMUX__VNEG1 << SAR_CTRL_N
 562:Generated_Source\PSoC6/ADC_1.h ****     #define ADC_1_CFG1_SWITCH_CONF_INIT          0u
 563:Generated_Source\PSoC6/ADC_1.h **** 
 564:Generated_Source\PSoC6/ADC_1.h ****     /* If the SAR is configured for multiple channels, always set SAR_HW_CTRL_NEGVREF to 1 */
 565:Generated_Source\PSoC6/ADC_1.h ****     #define ADC_1_CFG1_HW_CTRL_NEGVREF_INIT      SAR_CTRL_SAR_HW_CTRL_NEGVREF_Msk
 566:Generated_Source\PSoC6/ADC_1.h **** 
 567:Generated_Source\PSoC6/ADC_1.h ****     #define ADC_1_CFG1_POWER_INIT  (ADC_1_PWR_CTRL_VREF_NORMAL_PWR)
 568:Generated_Source\PSoC6/ADC_1.h **** 
 569:Generated_Source\PSoC6/ADC_1.h ****     /* SAMPLE_CTRL initial values */
 570:Generated_Source\PSoC6/ADC_1.h ****     #define ADC_1_CFG1_SE_RESULT_FORMAT_INIT \
 571:Generated_Source\PSoC6/ADC_1.h ****             (ADC_1_CFG1_SINGLE_ENDED_FORMAT \
 572:Generated_Source\PSoC6/ADC_1.h ****             << SAR_SAMPLE_CTRL_SINGLE_ENDED_SIGNED_Pos)
 573:Generated_Source\PSoC6/ADC_1.h **** 
 574:Generated_Source\PSoC6/ADC_1.h ****     #define ADC_1_CFG1_DIFF_RESULT_FORMAT_INIT \
 575:Generated_Source\PSoC6/ADC_1.h ****             (ADC_1_CFG1_DIFFERENTIAL_FORMAT \
 576:Generated_Source\PSoC6/ADC_1.h ****             << SAR_SAMPLE_CTRL_DIFFERENTIAL_SIGNED_Pos)
 577:Generated_Source\PSoC6/ADC_1.h **** 
 578:Generated_Source\PSoC6/ADC_1.h ****     #define ADC_1_CFG1_AVG_SAMPLES_NUM_INIT \
 579:Generated_Source\PSoC6/ADC_1.h ****             (ADC_1_CFG1_SAMPLES_AVERAGED \
 580:Generated_Source\PSoC6/ADC_1.h ****             << SAR_SAMPLE_CTRL_AVG_CNT_Pos)
 581:Generated_Source\PSoC6/ADC_1.h **** 
 582:Generated_Source\PSoC6/ADC_1.h ****     /* Combination of Average Mode and Average Shift */
 583:Generated_Source\PSoC6/ADC_1.h ****     #define ADC_1_CFG1_AVG_MODE_INIT \
 584:Generated_Source\PSoC6/ADC_1.h ****             (ADC_1_CFG1_AVGERAGING_MODE \
 585:Generated_Source\PSoC6/ADC_1.h ****             << SAR_SAMPLE_CTRL_AVG_SHIFT_Pos)
 586:Generated_Source\PSoC6/ADC_1.h **** 
 587:Generated_Source\PSoC6/ADC_1.h ****     #define ADC_1_CFG1_TRIGGER_OUT_INIT      (0u)
 588:Generated_Source\PSoC6/ADC_1.h ****     #define ADC_1_CFG1_UAB_SCAN_MODE_INIT    (0u)
 589:Generated_Source\PSoC6/ADC_1.h **** 
 590:Generated_Source\PSoC6/ADC_1.h ****     #define ADC_1_CFG1_VREF_POWER_INIT  \
 591:Generated_Source\PSoC6/ADC_1.h ****             (ADC_1_CFG1_VREF_PWR \
 592:Generated_Source\PSoC6/ADC_1.h ****             << SAR_CTRL_PWR_CTRL_VREF_Pos)
 593:Generated_Source\PSoC6/ADC_1.h **** 
 594:Generated_Source\PSoC6/ADC_1.h ****     #define ADC_1_CFG1_COMP_PWR_INIT  \
 595:Generated_Source\PSoC6/ADC_1.h ****             (ADC_1_CFG1_COMP_PWR \
 596:Generated_Source\PSoC6/ADC_1.h ****             << SAR_CTRL_COMP_PWR_Pos)
 597:Generated_Source\PSoC6/ADC_1.h **** 
 598:Generated_Source\PSoC6/ADC_1.h ****     #define ADC_1_CFG1_COMP_DLY_INIT  \
 599:Generated_Source\PSoC6/ADC_1.h ****             (ADC_1_CFG1_COMP_DLY \
 600:Generated_Source\PSoC6/ADC_1.h ****             << SAR_CTRL_COMP_DLY_Pos)
 601:Generated_Source\PSoC6/ADC_1.h **** 
 602:Generated_Source\PSoC6/ADC_1.h ****     #define ADC_1_CFG1_CTRL_INIT  \
 603:Generated_Source\PSoC6/ADC_1.h ****             (ADC_1_CFG1_VREF_POWER_INIT \
 604:Generated_Source\PSoC6/ADC_1.h ****             | ADC_1_CFG1_VREF_SEL_MASK \
 605:Generated_Source\PSoC6/ADC_1.h ****             | ADC_1_CFG1_SE_NEG_INPUT_INIT \
 606:Generated_Source\PSoC6/ADC_1.h ****             | ADC_1_CFG1_HW_CTRL_NEGVREF_INIT \
 607:Generated_Source\PSoC6/ADC_1.h ****             | ADC_1_CFG1_COMP_DLY_INIT \
 608:Generated_Source\PSoC6/ADC_1.h ****             | SAR_CTRL_REFBUF_EN_Msk \
 609:Generated_Source\PSoC6/ADC_1.h ****             | ADC_1_CFG1_COMP_PWR_INIT \
 610:Generated_Source\PSoC6/ADC_1.h ****             | SAR_CTRL_DSI_SYNC_CONFIG_Msk  \
ARM GAS  C:\Users\43479\AppData\Local\Temp\ccqwRonb.s 			page 29


 611:Generated_Source\PSoC6/ADC_1.h ****             | ADC_1_CFG1_SWITCH_CONF_INIT )
 612:Generated_Source\PSoC6/ADC_1.h **** 
 613:Generated_Source\PSoC6/ADC_1.h ****     #define ADC_1_CFG1_SAMPLE_CTRL_INIT \
 614:Generated_Source\PSoC6/ADC_1.h ****             (ADC_1_CFG1_SE_RESULT_FORMAT_INIT \
 615:Generated_Source\PSoC6/ADC_1.h ****             | ADC_1_CFG1_DIFF_RESULT_FORMAT_INIT \
 616:Generated_Source\PSoC6/ADC_1.h ****             | ADC_1_CFG1_AVG_SAMPLES_NUM_INIT \
 617:Generated_Source\PSoC6/ADC_1.h ****             | ADC_1_CFG1_AVG_MODE_INIT \
 618:Generated_Source\PSoC6/ADC_1.h ****             | ADC_1_CFG1_DSI_TRIGGER_LEVEL_INIT \
 619:Generated_Source\PSoC6/ADC_1.h ****             | ADC_1_CFG1_DSI_TRIGGER_EN_INIT \
 620:Generated_Source\PSoC6/ADC_1.h ****             | ADC_1_CFG1_UAB_SCAN_MODE_INIT \
 621:Generated_Source\PSoC6/ADC_1.h ****             | SAR_SAMPLE_CTRL_VALID_IGNORE_Msk \
 622:Generated_Source\PSoC6/ADC_1.h ****             | ADC_1_CFG1_TRIGGER_OUT_INIT \
 623:Generated_Source\PSoC6/ADC_1.h ****             | SAR_SAMPLE_CTRL_EOS_DSI_OUT_EN_Msk \
 624:Generated_Source\PSoC6/ADC_1.h ****     )
 625:Generated_Source\PSoC6/ADC_1.h **** 
 626:Generated_Source\PSoC6/ADC_1.h ****     #define ADC_1_CFG1_RANGE_THRES_INIT \
 627:Generated_Source\PSoC6/ADC_1.h ****             (ADC_1_CFG1_LOW_LIMIT \
 628:Generated_Source\PSoC6/ADC_1.h ****             | (uint32)((uint32)ADC_1_CFG1_HIGH_LIMIT \
 629:Generated_Source\PSoC6/ADC_1.h ****             << SAR_RANGE_THRES_RANGE_HIGH_Pos))
 630:Generated_Source\PSoC6/ADC_1.h **** 
 631:Generated_Source\PSoC6/ADC_1.h ****     #define ADC_1_CFG1_RANGE_COND_INIT   (cy_en_sar_range_detect_condition_t)ADC_1_CFG1_RANGE_COND
 632:Generated_Source\PSoC6/ADC_1.h **** 
 633:Generated_Source\PSoC6/ADC_1.h ****     /* Misc Config
 634:Generated_Source\PSoC6/ADC_1.h ****         [0] - Freerunning: Set if the sample mode is freerunning
 635:Generated_Source\PSoC6/ADC_1.h ****     */
 636:Generated_Source\PSoC6/ADC_1.h ****     #define ADC_1_CFG1_MISC_CONFIG_INIT \
 637:Generated_Source\PSoC6/ADC_1.h ****             (ADC_1_CFG1_FREERUNNING)
 638:Generated_Source\PSoC6/ADC_1.h **** #endif /* ADC_1_TOTAL_CONFIGS > 1 */
 639:Generated_Source\PSoC6/ADC_1.h **** 
 640:Generated_Source\PSoC6/ADC_1.h **** /* ************************************************************************** */
 641:Generated_Source\PSoC6/ADC_1.h **** /* End configuration 1 calculated defines                                     */
 642:Generated_Source\PSoC6/ADC_1.h **** /* ************************************************************************** */
 643:Generated_Source\PSoC6/ADC_1.h **** 
 644:Generated_Source\PSoC6/ADC_1.h **** /* ************************************************************************** */
 645:Generated_Source\PSoC6/ADC_1.h **** /* Begin configuration 2 calculated defines                                   */
 646:Generated_Source\PSoC6/ADC_1.h **** /* ************************************************************************** */
 647:Generated_Source\PSoC6/ADC_1.h **** #if(ADC_1_TOTAL_CONFIGS > 2)
 648:Generated_Source\PSoC6/ADC_1.h ****     #define ADC_1_CFG2_SAMPLE_TIME01_INIT \
 649:Generated_Source\PSoC6/ADC_1.h ****             ((ADC_1_CFG2_APERTURE_TIME0 \
 650:Generated_Source\PSoC6/ADC_1.h ****             << SAR_SAMPLE_TIME01_SAMPLE_TIME0_Pos) \
 651:Generated_Source\PSoC6/ADC_1.h ****             | (ADC_1_CFG2_APERTURE_TIME1 \
 652:Generated_Source\PSoC6/ADC_1.h ****             << SAR_SAMPLE_TIME01_SAMPLE_TIME1_Pos))
 653:Generated_Source\PSoC6/ADC_1.h **** 
 654:Generated_Source\PSoC6/ADC_1.h ****     #define ADC_1_CFG2_SAMPLE_TIME23_INIT \
 655:Generated_Source\PSoC6/ADC_1.h ****             ((ADC_1_CFG2_APERTURE_TIME2 \
 656:Generated_Source\PSoC6/ADC_1.h ****             << SAR_SAMPLE_TIME23_SAMPLE_TIME2_Pos) \
 657:Generated_Source\PSoC6/ADC_1.h ****             | (ADC_1_CFG2_APERTURE_TIME3 \
 658:Generated_Source\PSoC6/ADC_1.h ****             << SAR_SAMPLE_TIME23_SAMPLE_TIME3_Pos))
 659:Generated_Source\PSoC6/ADC_1.h **** 
 660:Generated_Source\PSoC6/ADC_1.h ****     /* Enable soc pin if used */
 661:Generated_Source\PSoC6/ADC_1.h ****     #define ADC_1_CFG2_DSI_TRIGGER_EN_INIT \
 662:Generated_Source\PSoC6/ADC_1.h ****             (ADC_1_CFG2_USE_SOC \
 663:Generated_Source\PSoC6/ADC_1.h ****             << SAR_SAMPLE_CTRL_DSI_TRIGGER_EN_Pos)
 664:Generated_Source\PSoC6/ADC_1.h **** 
 665:Generated_Source\PSoC6/ADC_1.h ****     /* Set soc operation to edge or level based on sample mode */
 666:Generated_Source\PSoC6/ADC_1.h ****     #if(ADC_1_CFG2_FREERUNNING == ADC_1_FREERUNNING)
 667:Generated_Source\PSoC6/ADC_1.h ****         #define ADC_1_CFG2_DSI_TRIGGER_LEVEL_INIT    (SAR_SAMPLE_CTRL_DSI_TRIGGER_LEVEL_Msk)
ARM GAS  C:\Users\43479\AppData\Local\Temp\ccqwRonb.s 			page 30


 668:Generated_Source\PSoC6/ADC_1.h ****     #else /* Edge trigger */
 669:Generated_Source\PSoC6/ADC_1.h ****         #define ADC_1_CFG2_DSI_TRIGGER_LEVEL_INIT    (0u)
 670:Generated_Source\PSoC6/ADC_1.h ****     #endif /* End ADC_1_CFG2_FREERUNNING == ADC_1_FREERUNNING */
 671:Generated_Source\PSoC6/ADC_1.h **** 
 672:Generated_Source\PSoC6/ADC_1.h ****     /* Set SE_NEG_INPUT */
 673:Generated_Source\PSoC6/ADC_1.h ****     #if(ADC_1_CFG2_VNEG_INPUT_SEL == ADC_1_NEG_SEL_VSSA_KELVIN)
 674:Generated_Source\PSoC6/ADC_1.h ****         #define ADC_1_CFG2_SE_NEG_INPUT_INIT \
 675:Generated_Source\PSoC6/ADC_1.h ****             ((uint32)(ADC_1_NEG_SEL_VSSA_KELVIN \
 676:Generated_Source\PSoC6/ADC_1.h ****             << SAR_CTRL_NEG_SEL_Pos ))
 677:Generated_Source\PSoC6/ADC_1.h ****     #elif(ADC_1_CFG2_VNEG_INPUT_SEL == ADC_1_NEG_SEL_VREF)
 678:Generated_Source\PSoC6/ADC_1.h ****         #define ADC_1_CFG2_SE_NEG_INPUT_INIT     (ADC_1_NEG_SEL_VREF \
 679:Generated_Source\PSoC6/ADC_1.h ****                                                                 << SAR_CTRL_NEG_SEL_Pos )
 680:Generated_Source\PSoC6/ADC_1.h ****     #elif (ADC_1_CFG2_SINGLE_PRESENT != 0u)
 681:Generated_Source\PSoC6/ADC_1.h ****         #define ADC_1_CFG2_SE_NEG_INPUT_INIT         ADC_1_CFG2_NEG_OTHER
 682:Generated_Source\PSoC6/ADC_1.h ****     #else
 683:Generated_Source\PSoC6/ADC_1.h ****         #define ADC_1_CFG2_SE_NEG_INPUT_INIT         0u
 684:Generated_Source\PSoC6/ADC_1.h ****     #endif /* ADC_1_CFG2_VNEG_INPUT_SEL == ADC_1_NEG_SEL_VSSA_KELVIN */
 685:Generated_Source\PSoC6/ADC_1.h **** 
 686:Generated_Source\PSoC6/ADC_1.h ****    #define ADC_1_CFG2_NEG_OTHER                 (uint16)((uint16)ADC_1_SARMUX__VNEG2 << SAR_CTRL_NE
 687:Generated_Source\PSoC6/ADC_1.h **** 
 688:Generated_Source\PSoC6/ADC_1.h ****     #define ADC_1_CFG2_SWITCH_CONF_INIT          0u
 689:Generated_Source\PSoC6/ADC_1.h **** 
 690:Generated_Source\PSoC6/ADC_1.h ****     /* If the SAR is configured for multiple channels, always set SAR_HW_CTRL_NEGVREF to 1 */
 691:Generated_Source\PSoC6/ADC_1.h ****     #define ADC_1_CFG2_HW_CTRL_NEGVREF_INIT      SAR_CTRL_SAR_HW_CTRL_NEGVREF_Msk
 692:Generated_Source\PSoC6/ADC_1.h **** 
 693:Generated_Source\PSoC6/ADC_1.h ****     #define ADC_1_CFG2_POWER_INIT  (ADC_1_PWR_CTRL_VREF_NORMAL_PWR)
 694:Generated_Source\PSoC6/ADC_1.h **** 
 695:Generated_Source\PSoC6/ADC_1.h ****     /* SAMPLE_CTRL initial values */
 696:Generated_Source\PSoC6/ADC_1.h ****     #define ADC_1_CFG2_SE_RESULT_FORMAT_INIT \
 697:Generated_Source\PSoC6/ADC_1.h ****             (ADC_1_CFG2_SINGLE_ENDED_FORMAT \
 698:Generated_Source\PSoC6/ADC_1.h ****             << SAR_SAMPLE_CTRL_SINGLE_ENDED_SIGNED_Pos)
 699:Generated_Source\PSoC6/ADC_1.h **** 
 700:Generated_Source\PSoC6/ADC_1.h ****     #define ADC_1_CFG2_DIFF_RESULT_FORMAT_INIT \
 701:Generated_Source\PSoC6/ADC_1.h ****             (ADC_1_CFG2_DIFFERENTIAL_FORMAT \
 702:Generated_Source\PSoC6/ADC_1.h ****             << SAR_SAMPLE_CTRL_DIFFERENTIAL_SIGNED_Pos)
 703:Generated_Source\PSoC6/ADC_1.h **** 
 704:Generated_Source\PSoC6/ADC_1.h ****     #define ADC_1_CFG2_AVG_SAMPLES_NUM_INIT \
 705:Generated_Source\PSoC6/ADC_1.h ****             (ADC_1_CFG2_SAMPLES_AVERAGED \
 706:Generated_Source\PSoC6/ADC_1.h ****             << SAR_SAMPLE_CTRL_AVG_CNT_Pos)
 707:Generated_Source\PSoC6/ADC_1.h **** 
 708:Generated_Source\PSoC6/ADC_1.h ****     /* Combination of Average Mode and Average Shift */
 709:Generated_Source\PSoC6/ADC_1.h ****     #define ADC_1_CFG2_AVG_MODE_INIT \
 710:Generated_Source\PSoC6/ADC_1.h ****             (ADC_1_CFG2_AVGERAGING_MODE \
 711:Generated_Source\PSoC6/ADC_1.h ****             << SAR_SAMPLE_CTRL_AVG_SHIFT_Pos)
 712:Generated_Source\PSoC6/ADC_1.h **** 
 713:Generated_Source\PSoC6/ADC_1.h ****     #define ADC_1_CFG2_TRIGGER_OUT_INIT      (0u)
 714:Generated_Source\PSoC6/ADC_1.h ****     #define ADC_1_CFG2_UAB_SCAN_MODE_INIT    (0u)
 715:Generated_Source\PSoC6/ADC_1.h **** 
 716:Generated_Source\PSoC6/ADC_1.h **** 
 717:Generated_Source\PSoC6/ADC_1.h ****     #define ADC_1_CFG2_VREF_POWER_INIT  \
 718:Generated_Source\PSoC6/ADC_1.h ****             (ADC_1_CFG2_VREF_PWR \
 719:Generated_Source\PSoC6/ADC_1.h ****             << SAR_CTRL_PWR_CTRL_VREF_Pos)
 720:Generated_Source\PSoC6/ADC_1.h **** 
 721:Generated_Source\PSoC6/ADC_1.h ****     #define ADC_1_CFG2_COMP_PWR_INIT  \
 722:Generated_Source\PSoC6/ADC_1.h ****             (ADC_1_CFG2_COMP_PWR \
 723:Generated_Source\PSoC6/ADC_1.h ****             << SAR_CTRL_COMP_PWR_Pos)
 724:Generated_Source\PSoC6/ADC_1.h **** 
ARM GAS  C:\Users\43479\AppData\Local\Temp\ccqwRonb.s 			page 31


 725:Generated_Source\PSoC6/ADC_1.h ****     #define ADC_1_CFG2_COMP_DLY_INIT  \
 726:Generated_Source\PSoC6/ADC_1.h ****             (ADC_1_CFG2_COMP_DLY \
 727:Generated_Source\PSoC6/ADC_1.h ****             << SAR_CTRL_COMP_DLY_Pos)
 728:Generated_Source\PSoC6/ADC_1.h **** 
 729:Generated_Source\PSoC6/ADC_1.h ****     #define ADC_1_CFG2_CTRL_INIT  \
 730:Generated_Source\PSoC6/ADC_1.h ****             (ADC_1_CFG2_VREF_POWER_INIT \
 731:Generated_Source\PSoC6/ADC_1.h ****             | ADC_1_CFG2_VREF_SEL_MASK \
 732:Generated_Source\PSoC6/ADC_1.h ****             | ADC_1_CFG2_SE_NEG_INPUT_INIT \
 733:Generated_Source\PSoC6/ADC_1.h ****             | ADC_1_CFG2_HW_CTRL_NEGVREF_INIT \
 734:Generated_Source\PSoC6/ADC_1.h ****             | ADC_1_CFG2_COMP_DLY_INIT \
 735:Generated_Source\PSoC6/ADC_1.h ****             | SAR_CTRL_REFBUF_EN_Msk \
 736:Generated_Source\PSoC6/ADC_1.h ****             | ADC_1_CFG2_COMP_PWR_INIT \
 737:Generated_Source\PSoC6/ADC_1.h ****             | SAR_CTRL_DSI_SYNC_CONFIG_Msk  \
 738:Generated_Source\PSoC6/ADC_1.h ****             | ADC_1_CFG2_SWITCH_CONF_INIT )
 739:Generated_Source\PSoC6/ADC_1.h **** 
 740:Generated_Source\PSoC6/ADC_1.h **** 
 741:Generated_Source\PSoC6/ADC_1.h ****     #define ADC_1_CFG2_SAMPLE_CTRL_INIT \
 742:Generated_Source\PSoC6/ADC_1.h ****             (ADC_1_CFG2_SE_RESULT_FORMAT_INIT \
 743:Generated_Source\PSoC6/ADC_1.h ****             | ADC_1_CFG2_DIFF_RESULT_FORMAT_INIT \
 744:Generated_Source\PSoC6/ADC_1.h ****             | ADC_1_CFG2_AVG_SAMPLES_NUM_INIT \
 745:Generated_Source\PSoC6/ADC_1.h ****             | ADC_1_CFG2_AVG_MODE_INIT \
 746:Generated_Source\PSoC6/ADC_1.h ****             | ADC_1_CFG2_DSI_TRIGGER_LEVEL_INIT \
 747:Generated_Source\PSoC6/ADC_1.h ****             | ADC_1_CFG2_DSI_TRIGGER_EN_INIT \
 748:Generated_Source\PSoC6/ADC_1.h ****             | ADC_1_CFG2_UAB_SCAN_MODE_INIT \
 749:Generated_Source\PSoC6/ADC_1.h ****             | SAR_SAMPLE_CTRL_VALID_IGNORE_Msk \
 750:Generated_Source\PSoC6/ADC_1.h ****             | ADC_1_CFG2_TRIGGER_OUT_INIT \
 751:Generated_Source\PSoC6/ADC_1.h ****             | SAR_SAMPLE_CTRL_EOS_DSI_OUT_EN_Msk \
 752:Generated_Source\PSoC6/ADC_1.h ****     )
 753:Generated_Source\PSoC6/ADC_1.h **** 
 754:Generated_Source\PSoC6/ADC_1.h ****     #define ADC_1_CFG2_RANGE_THRES_INIT \
 755:Generated_Source\PSoC6/ADC_1.h ****             (ADC_1_CFG2_LOW_LIMIT \
 756:Generated_Source\PSoC6/ADC_1.h ****             | (uint32)((uint32)ADC_1_CFG2_HIGH_LIMIT \
 757:Generated_Source\PSoC6/ADC_1.h ****             << SAR_RANGE_THRES_RANGE_HIGH_Pos))
 758:Generated_Source\PSoC6/ADC_1.h **** 
 759:Generated_Source\PSoC6/ADC_1.h ****     #define ADC_1_CFG2_RANGE_COND_INIT   (cy_en_sar_range_detect_condition_t)ADC_1_CFG2_RANGE_COND
 760:Generated_Source\PSoC6/ADC_1.h **** 
 761:Generated_Source\PSoC6/ADC_1.h ****     /* Misc Config
 762:Generated_Source\PSoC6/ADC_1.h ****         [0] - Freerunning: Set if the sample mode is freerunning
 763:Generated_Source\PSoC6/ADC_1.h ****     */
 764:Generated_Source\PSoC6/ADC_1.h ****     #define ADC_1_CFG2_MISC_CONFIG_INIT \
 765:Generated_Source\PSoC6/ADC_1.h ****             (ADC_1_CFG2_FREERUNNING)
 766:Generated_Source\PSoC6/ADC_1.h **** #endif /* ADC_1_TOTAL_CONFIGS > 2 */
 767:Generated_Source\PSoC6/ADC_1.h **** 
 768:Generated_Source\PSoC6/ADC_1.h **** /* ************************************************************************** */
 769:Generated_Source\PSoC6/ADC_1.h **** /* End configuration 2 calculated defines                                     */
 770:Generated_Source\PSoC6/ADC_1.h **** /* ************************************************************************** */
 771:Generated_Source\PSoC6/ADC_1.h **** 
 772:Generated_Source\PSoC6/ADC_1.h **** /* ************************************************************************** */
 773:Generated_Source\PSoC6/ADC_1.h **** /* Begin configuration 3 calculated defines                                   */
 774:Generated_Source\PSoC6/ADC_1.h **** /* ************************************************************************** */
 775:Generated_Source\PSoC6/ADC_1.h **** #if(ADC_1_TOTAL_CONFIGS > 3)
 776:Generated_Source\PSoC6/ADC_1.h ****     #define ADC_1_CFG3_SAMPLE_TIME01_INIT \
 777:Generated_Source\PSoC6/ADC_1.h ****             ((ADC_1_CFG3_APERTURE_TIME0 \
 778:Generated_Source\PSoC6/ADC_1.h ****             << SAR_SAMPLE_TIME01_SAMPLE_TIME0_Pos) \
 779:Generated_Source\PSoC6/ADC_1.h ****             | (ADC_1_CFG3_APERTURE_TIME1 \
 780:Generated_Source\PSoC6/ADC_1.h ****             << SAR_SAMPLE_TIME01_SAMPLE_TIME1_Pos))
 781:Generated_Source\PSoC6/ADC_1.h **** 
ARM GAS  C:\Users\43479\AppData\Local\Temp\ccqwRonb.s 			page 32


 782:Generated_Source\PSoC6/ADC_1.h ****     #define ADC_1_CFG3_SAMPLE_TIME23_INIT \
 783:Generated_Source\PSoC6/ADC_1.h ****             ((ADC_1_CFG3_APERTURE_TIME2 \
 784:Generated_Source\PSoC6/ADC_1.h ****             << SAR_SAMPLE_TIME23_SAMPLE_TIME2_Pos) \
 785:Generated_Source\PSoC6/ADC_1.h ****             | (ADC_1_CFG3_APERTURE_TIME3 \
 786:Generated_Source\PSoC6/ADC_1.h ****             << SAR_SAMPLE_TIME23_SAMPLE_TIME3_Pos))
 787:Generated_Source\PSoC6/ADC_1.h **** 
 788:Generated_Source\PSoC6/ADC_1.h ****     /* Enable soc pin if used */
 789:Generated_Source\PSoC6/ADC_1.h ****     #define ADC_1_CFG3_DSI_TRIGGER_EN_INIT \
 790:Generated_Source\PSoC6/ADC_1.h ****             (ADC_1_CFG3_USE_SOC \
 791:Generated_Source\PSoC6/ADC_1.h ****              << SAR_SAMPLE_CTRL_DSI_TRIGGER_EN_Pos)
 792:Generated_Source\PSoC6/ADC_1.h **** 
 793:Generated_Source\PSoC6/ADC_1.h ****     /* Set soc operation to edge or level based on sample mode */
 794:Generated_Source\PSoC6/ADC_1.h ****     #if(ADC_1_CFG3_FREERUNNING == ADC_1_FREERUNNING)
 795:Generated_Source\PSoC6/ADC_1.h ****         #define ADC_1_CFG3_DSI_TRIGGER_LEVEL_INIT    (SAR_SAMPLE_CTRL_DSI_TRIGGER_LEVEL_Msk)
 796:Generated_Source\PSoC6/ADC_1.h ****     #else /* Edge trigger */
 797:Generated_Source\PSoC6/ADC_1.h ****         #define ADC_1_CFG3_DSI_TRIGGER_LEVEL_INIT    (0u)
 798:Generated_Source\PSoC6/ADC_1.h ****     #endif /* End ADC_1_CFG3_FREERUNNING == ADC_1_FREERUNNING */
 799:Generated_Source\PSoC6/ADC_1.h **** 
 800:Generated_Source\PSoC6/ADC_1.h ****     /* Set SE_NEG_INPUT  */
 801:Generated_Source\PSoC6/ADC_1.h ****     #if(ADC_1_CFG3_VNEG_INPUT_SEL == ADC_1_NEG_SEL_VSSA_KELVIN)
 802:Generated_Source\PSoC6/ADC_1.h ****         #define ADC_1_CFG3_SE_NEG_INPUT_INIT \
 803:Generated_Source\PSoC6/ADC_1.h ****             ((uint32)(ADC_1_NEG_SEL_VSSA_KELVIN \
 804:Generated_Source\PSoC6/ADC_1.h ****             << SAR_CTRL_NEG_SEL_Pos ))
 805:Generated_Source\PSoC6/ADC_1.h ****     #elif(ADC_1_CFG3_VNEG_INPUT_SEL == ADC_1_NEG_SEL_VREF)
 806:Generated_Source\PSoC6/ADC_1.h ****         #define ADC_1_CFG3_SE_NEG_INPUT_INIT     (ADC_1_NEG_SEL_VREF \
 807:Generated_Source\PSoC6/ADC_1.h ****                                                                 << SAR_CTRL_NEG_SEL_Pos )
 808:Generated_Source\PSoC6/ADC_1.h ****     #elif (ADC_1_CFG3_SINGLE_PRESENT != 0u)
 809:Generated_Source\PSoC6/ADC_1.h ****         #define ADC_1_CFG3_SE_NEG_INPUT_INIT         ADC_1_CFG3_NEG_OTHER
 810:Generated_Source\PSoC6/ADC_1.h ****     #else
 811:Generated_Source\PSoC6/ADC_1.h ****         #define ADC_1_CFG3_SE_NEG_INPUT_INIT         0u
 812:Generated_Source\PSoC6/ADC_1.h ****     #endif /* ADC_1_CFG3_VNEG_INPUT_SEL == ADC_1_NEG_SEL_VSSA_KELVIN */
 813:Generated_Source\PSoC6/ADC_1.h **** 
 814:Generated_Source\PSoC6/ADC_1.h ****     #define ADC_1_CFG3_NEG_OTHER                 (uint16)((uint16)ADC_1_SARMUX__VNEG3 << SAR_CTRL_N
 815:Generated_Source\PSoC6/ADC_1.h **** 
 816:Generated_Source\PSoC6/ADC_1.h ****     #define ADC_1_CFG3_SWITCH_CONF_INIT          0u
 817:Generated_Source\PSoC6/ADC_1.h **** 
 818:Generated_Source\PSoC6/ADC_1.h ****     /* If the SAR is configured for multiple channels, always set SAR_HW_CTRL_NEGVREF to 1 */
 819:Generated_Source\PSoC6/ADC_1.h ****     #define ADC_1_CFG3_HW_CTRL_NEGVREF_INIT      SAR_CTRL_SAR_HW_CTRL_NEGVREF_Msk
 820:Generated_Source\PSoC6/ADC_1.h **** 
 821:Generated_Source\PSoC6/ADC_1.h ****     #define ADC_1_CFG3_POWER_INIT  (ADC_1_PWR_CTRL_VREF_NORMAL_PWR)
 822:Generated_Source\PSoC6/ADC_1.h **** 
 823:Generated_Source\PSoC6/ADC_1.h ****     /* SAMPLE_CTRL initial values */
 824:Generated_Source\PSoC6/ADC_1.h ****     #define ADC_1_CFG3_SE_RESULT_FORMAT_INIT \
 825:Generated_Source\PSoC6/ADC_1.h ****             (ADC_1_CFG3_SINGLE_ENDED_FORMAT \
 826:Generated_Source\PSoC6/ADC_1.h ****             << SAR_SAMPLE_CTRL_SINGLE_ENDED_SIGNED_Pos)
 827:Generated_Source\PSoC6/ADC_1.h **** 
 828:Generated_Source\PSoC6/ADC_1.h ****     #define ADC_1_CFG3_DIFF_RESULT_FORMAT_INIT \
 829:Generated_Source\PSoC6/ADC_1.h ****             (ADC_1_CFG3_DIFFERENTIAL_FORMAT \
 830:Generated_Source\PSoC6/ADC_1.h ****             << SAR_SAMPLE_CTRL_DIFFERENTIAL_SIGNED_Pos)
 831:Generated_Source\PSoC6/ADC_1.h **** 
 832:Generated_Source\PSoC6/ADC_1.h ****     #define ADC_1_CFG3_AVG_SAMPLES_NUM_INIT \
 833:Generated_Source\PSoC6/ADC_1.h ****             (ADC_1_CFG3_SAMPLES_AVERAGED \
 834:Generated_Source\PSoC6/ADC_1.h ****             << SAR_SAMPLE_CTRL_AVG_CNT_Pos)
 835:Generated_Source\PSoC6/ADC_1.h **** 
 836:Generated_Source\PSoC6/ADC_1.h ****     /* Combination of Average Mode and Average Shift */
 837:Generated_Source\PSoC6/ADC_1.h ****     #define ADC_1_CFG3_AVG_MODE_INIT \
 838:Generated_Source\PSoC6/ADC_1.h ****             (ADC_1_CFG3_AVGERAGING_MODE \
ARM GAS  C:\Users\43479\AppData\Local\Temp\ccqwRonb.s 			page 33


 839:Generated_Source\PSoC6/ADC_1.h ****             << SAR_SAMPLE_CTRL_AVG_SHIFT_Pos)
 840:Generated_Source\PSoC6/ADC_1.h **** 
 841:Generated_Source\PSoC6/ADC_1.h ****     #define ADC_1_CFG3_TRIGGER_OUT_INIT      (0u)
 842:Generated_Source\PSoC6/ADC_1.h ****     #define ADC_1_CFG3_UAB_SCAN_MODE_INIT    (0u)
 843:Generated_Source\PSoC6/ADC_1.h **** 
 844:Generated_Source\PSoC6/ADC_1.h ****     #define ADC_1_CFG3_VREF_POWER_INIT  \
 845:Generated_Source\PSoC6/ADC_1.h ****             (ADC_1_CFG3_VREF_PWR \
 846:Generated_Source\PSoC6/ADC_1.h ****             << SAR_CTRL_PWR_CTRL_VREF_Pos)
 847:Generated_Source\PSoC6/ADC_1.h **** 
 848:Generated_Source\PSoC6/ADC_1.h ****     #define ADC_1_CFG3_COMP_PWR_INIT  \
 849:Generated_Source\PSoC6/ADC_1.h ****             (ADC_1_CFG3_COMP_PWR \
 850:Generated_Source\PSoC6/ADC_1.h ****             << SAR_CTRL_COMP_PWR_Pos)
 851:Generated_Source\PSoC6/ADC_1.h **** 
 852:Generated_Source\PSoC6/ADC_1.h ****     #define ADC_1_CFG3_COMP_DLY_INIT  \
 853:Generated_Source\PSoC6/ADC_1.h ****             (ADC_1_CFG3_COMP_DLY \
 854:Generated_Source\PSoC6/ADC_1.h ****             << SAR_CTRL_COMP_DLY_Pos)
 855:Generated_Source\PSoC6/ADC_1.h **** 
 856:Generated_Source\PSoC6/ADC_1.h ****     #define ADC_1_CFG3_CTRL_INIT  \
 857:Generated_Source\PSoC6/ADC_1.h ****             (ADC_1_CFG3_VREF_POWER_INIT \
 858:Generated_Source\PSoC6/ADC_1.h ****             | ADC_1_CFG3_VREF_SEL_MASK \
 859:Generated_Source\PSoC6/ADC_1.h ****             | ADC_1_CFG3_SE_NEG_INPUT_INIT \
 860:Generated_Source\PSoC6/ADC_1.h ****             | ADC_1_CFG3_HW_CTRL_NEGVREF_INIT \
 861:Generated_Source\PSoC6/ADC_1.h ****             | ADC_1_CFG3_COMP_DLY_INIT \
 862:Generated_Source\PSoC6/ADC_1.h ****             | SAR_CTRL_REFBUF_EN_Msk \
 863:Generated_Source\PSoC6/ADC_1.h ****             | ADC_1_CFG3_COMP_PWR_INIT \
 864:Generated_Source\PSoC6/ADC_1.h ****             | SAR_CTRL_DSI_SYNC_CONFIG_Msk  \
 865:Generated_Source\PSoC6/ADC_1.h ****             | ADC_1_CFG3_SWITCH_CONF_INIT )
 866:Generated_Source\PSoC6/ADC_1.h **** 
 867:Generated_Source\PSoC6/ADC_1.h **** 
 868:Generated_Source\PSoC6/ADC_1.h ****     #define ADC_1_CFG3_SAMPLE_CTRL_INIT \
 869:Generated_Source\PSoC6/ADC_1.h ****             (ADC_1_CFG3_SE_RESULT_FORMAT_INIT \
 870:Generated_Source\PSoC6/ADC_1.h ****             | ADC_1_CFG3_DIFF_RESULT_FORMAT_INIT \
 871:Generated_Source\PSoC6/ADC_1.h ****             | ADC_1_CFG3_AVG_SAMPLES_NUM_INIT \
 872:Generated_Source\PSoC6/ADC_1.h ****             | ADC_1_CFG3_AVG_MODE_INIT \
 873:Generated_Source\PSoC6/ADC_1.h ****             | ADC_1_CFG3_DSI_TRIGGER_LEVEL_INIT \
 874:Generated_Source\PSoC6/ADC_1.h ****             | ADC_1_CFG3_DSI_TRIGGER_EN_INIT \
 875:Generated_Source\PSoC6/ADC_1.h ****             | ADC_1_CFG3_UAB_SCAN_MODE_INIT \
 876:Generated_Source\PSoC6/ADC_1.h ****             | SAR_SAMPLE_CTRL_VALID_IGNORE_Msk \
 877:Generated_Source\PSoC6/ADC_1.h ****             | ADC_1_CFG3_TRIGGER_OUT_INIT \
 878:Generated_Source\PSoC6/ADC_1.h ****             | SAR_SAMPLE_CTRL_EOS_DSI_OUT_EN_Msk \
 879:Generated_Source\PSoC6/ADC_1.h ****     )
 880:Generated_Source\PSoC6/ADC_1.h **** 
 881:Generated_Source\PSoC6/ADC_1.h ****     #define ADC_1_CFG3_RANGE_THRES_INIT \
 882:Generated_Source\PSoC6/ADC_1.h ****             (ADC_1_CFG3_LOW_LIMIT \
 883:Generated_Source\PSoC6/ADC_1.h ****             | (uint32)((uint32)ADC_1_CFG3_HIGH_LIMIT \
 884:Generated_Source\PSoC6/ADC_1.h ****             << SAR_RANGE_THRES_RANGE_HIGH_Pos))
 885:Generated_Source\PSoC6/ADC_1.h **** 
 886:Generated_Source\PSoC6/ADC_1.h ****     #define ADC_1_CFG3_RANGE_COND_INIT   (cy_en_sar_range_detect_condition_t)ADC_1_CFG3_RANGE_COND
 887:Generated_Source\PSoC6/ADC_1.h **** 
 888:Generated_Source\PSoC6/ADC_1.h ****     /* Misc Config
 889:Generated_Source\PSoC6/ADC_1.h ****         [0] - Freerunning: Set if the sample mode is freerunning
 890:Generated_Source\PSoC6/ADC_1.h ****     */
 891:Generated_Source\PSoC6/ADC_1.h ****     #define ADC_1_CFG3_MISC_CONFIG_INIT \
 892:Generated_Source\PSoC6/ADC_1.h ****             (ADC_1_CFG3_FREERUNNING )
 893:Generated_Source\PSoC6/ADC_1.h **** 
 894:Generated_Source\PSoC6/ADC_1.h **** #endif /* ADC_1_TOTAL_CONFIGS > 3 */
 895:Generated_Source\PSoC6/ADC_1.h **** 
ARM GAS  C:\Users\43479\AppData\Local\Temp\ccqwRonb.s 			page 34


 896:Generated_Source\PSoC6/ADC_1.h **** /* ************************************************************************** */
 897:Generated_Source\PSoC6/ADC_1.h **** /* End configuration 3 calculated defines                                     */
 898:Generated_Source\PSoC6/ADC_1.h **** /* ************************************************************************** */
 899:Generated_Source\PSoC6/ADC_1.h **** 
 900:Generated_Source\PSoC6/ADC_1.h **** /******************************************************************************
 901:Generated_Source\PSoC6/ADC_1.h **** * Function Name: ADC_1_Enable
 902:Generated_Source\PSoC6/ADC_1.h **** ****************************************************************************//*
 903:Generated_Source\PSoC6/ADC_1.h **** *
 904:Generated_Source\PSoC6/ADC_1.h **** * \brief Enables the component.
 905:Generated_Source\PSoC6/ADC_1.h **** *
 906:Generated_Source\PSoC6/ADC_1.h **** * \param None
 907:Generated_Source\PSoC6/ADC_1.h **** *
 908:Generated_Source\PSoC6/ADC_1.h **** * \return None
 909:Generated_Source\PSoC6/ADC_1.h **** *
 910:Generated_Source\PSoC6/ADC_1.h **** * \sideeffect
 911:Generated_Source\PSoC6/ADC_1.h **** *  None
 912:Generated_Source\PSoC6/ADC_1.h **** *
 913:Generated_Source\PSoC6/ADC_1.h **** *******************************************************************************/
 914:Generated_Source\PSoC6/ADC_1.h **** __STATIC_INLINE void ADC_1_Enable(void)
 915:Generated_Source\PSoC6/ADC_1.h **** {
 916:Generated_Source\PSoC6/ADC_1.h ****     Cy_SAR_Enable(ADC_1_SAR__HW);
 917:Generated_Source\PSoC6/ADC_1.h **** }
 918:Generated_Source\PSoC6/ADC_1.h **** 
 919:Generated_Source\PSoC6/ADC_1.h **** /*******************************************************************************
 920:Generated_Source\PSoC6/ADC_1.h **** * Function Name: ADC_1_Stop
 921:Generated_Source\PSoC6/ADC_1.h **** ****************************************************************************//**
 922:Generated_Source\PSoC6/ADC_1.h **** *
 923:Generated_Source\PSoC6/ADC_1.h **** * \brief This function stops ADC conversions and puts the ADC into its lowest
 924:Generated_Source\PSoC6/ADC_1.h **** * power mode.
 925:Generated_Source\PSoC6/ADC_1.h **** *
 926:Generated_Source\PSoC6/ADC_1.h **** * \param None
 927:Generated_Source\PSoC6/ADC_1.h **** *
 928:Generated_Source\PSoC6/ADC_1.h **** * \return None
 929:Generated_Source\PSoC6/ADC_1.h **** *
 930:Generated_Source\PSoC6/ADC_1.h **** * \sideeffect
 931:Generated_Source\PSoC6/ADC_1.h **** * Do not use the ADC_1_Stop() API to halt conversions. Instead use the
 932:Generated_Source\PSoC6/ADC_1.h **** * ADC_1_StopConvert() API. If you use the ADC_1_Stop() API
 933:Generated_Source\PSoC6/ADC_1.h **** * to halt conversions then later use the ADC_1_Start() and
 934:Generated_Source\PSoC6/ADC_1.h **** * ADC_1_StartConvert() APIs to resume conversions, the first channel
 935:Generated_Source\PSoC6/ADC_1.h **** * of the scan may be corrupt. The ADC_1_StopConvert() API will enable
 936:Generated_Source\PSoC6/ADC_1.h **** * the ADC_1 to complete the current scan of channels. After the
 937:Generated_Source\PSoC6/ADC_1.h **** * channel scan is complete, the ADC_1 will stop all conversions, which
 938:Generated_Source\PSoC6/ADC_1.h **** * can be detected by the use of an ISR or the ADC_1_IsEndConversion()
 939:Generated_Source\PSoC6/ADC_1.h **** * function.
 940:Generated_Source\PSoC6/ADC_1.h **** *
 941:Generated_Source\PSoC6/ADC_1.h **** *******************************************************************************/
 942:Generated_Source\PSoC6/ADC_1.h **** __STATIC_INLINE void ADC_1_Stop(void)
 943:Generated_Source\PSoC6/ADC_1.h **** {
 944:Generated_Source\PSoC6/ADC_1.h ****     Cy_SAR_Disable(ADC_1_SAR__HW);
 945:Generated_Source\PSoC6/ADC_1.h **** }
 946:Generated_Source\PSoC6/ADC_1.h **** 
 947:Generated_Source\PSoC6/ADC_1.h **** /*******************************************************************************
 948:Generated_Source\PSoC6/ADC_1.h **** * Function Name: ADC_1_StopConvert
 949:Generated_Source\PSoC6/ADC_1.h **** ****************************************************************************//**
 950:Generated_Source\PSoC6/ADC_1.h **** *
 951:Generated_Source\PSoC6/ADC_1.h **** * \brief Forces the ADC_1 to stop conversions. If a conversion is
 952:Generated_Source\PSoC6/ADC_1.h **** * currently executing, that conversion will complete, but no further conversions
ARM GAS  C:\Users\43479\AppData\Local\Temp\ccqwRonb.s 			page 35


 953:Generated_Source\PSoC6/ADC_1.h **** * will occur.
 954:Generated_Source\PSoC6/ADC_1.h **** *
 955:Generated_Source\PSoC6/ADC_1.h **** * \param None
 956:Generated_Source\PSoC6/ADC_1.h **** *
 957:Generated_Source\PSoC6/ADC_1.h **** * \return None
 958:Generated_Source\PSoC6/ADC_1.h **** *
 959:Generated_Source\PSoC6/ADC_1.h **** * \sideeffect None
 960:Generated_Source\PSoC6/ADC_1.h **** *
 961:Generated_Source\PSoC6/ADC_1.h **** *******************************************************************************/
 962:Generated_Source\PSoC6/ADC_1.h **** __STATIC_INLINE void ADC_1_StopConvert(void)
 963:Generated_Source\PSoC6/ADC_1.h **** {
 964:Generated_Source\PSoC6/ADC_1.h ****     Cy_SAR_StopConvert(ADC_1_SAR__HW);
  95              		.loc 3 964 0
  96 003e 2148     		ldr	r0, .L10+4
  97 0040 FFF7FEFF 		bl	Cy_SAR_StopConvert
  98              	.LVL10:
  99              	.LBE65:
 100              	.LBE64:
 101              	.LBB66:
 102              	.LBB67:
 965:Generated_Source\PSoC6/ADC_1.h **** }
 966:Generated_Source\PSoC6/ADC_1.h **** 
 967:Generated_Source\PSoC6/ADC_1.h **** /*******************************************************************************
 968:Generated_Source\PSoC6/ADC_1.h **** * Function Name: ADC_1_GetResult16
 969:Generated_Source\PSoC6/ADC_1.h **** ****************************************************************************//**
 970:Generated_Source\PSoC6/ADC_1.h **** *
 971:Generated_Source\PSoC6/ADC_1.h **** * \brief Gets the data available in the channel result data register
 972:Generated_Source\PSoC6/ADC_1.h **** *
 973:Generated_Source\PSoC6/ADC_1.h **** * \param chan The ADC_1 channel to read the result from. The first
 974:Generated_Source\PSoC6/ADC_1.h **** * channel is 0.
 975:Generated_Source\PSoC6/ADC_1.h **** *
 976:Generated_Source\PSoC6/ADC_1.h **** * \return Returns converted data as a signed 16-bit integer.
 977:Generated_Source\PSoC6/ADC_1.h **** *
 978:Generated_Source\PSoC6/ADC_1.h **** * \sideeffect None
 979:Generated_Source\PSoC6/ADC_1.h **** *
 980:Generated_Source\PSoC6/ADC_1.h **** *******************************************************************************/
 981:Generated_Source\PSoC6/ADC_1.h **** __STATIC_INLINE int16_t ADC_1_GetResult16(uint32_t chan)
 982:Generated_Source\PSoC6/ADC_1.h **** {
 983:Generated_Source\PSoC6/ADC_1.h ****     /* Halt CPU in debug mode if channel is out of valid range */
 984:Generated_Source\PSoC6/ADC_1.h ****     CY_ASSERT(chan < ADC_1_allConfigs[ADC_1_currentConfig].numChannels);
 103              		.loc 3 984 0
 104 0044 204B     		ldr	r3, .L10+8
 105 0046 1B68     		ldr	r3, [r3]
 106 0048 03EB8303 		add	r3, r3, r3, lsl #2
 107 004c 9A00     		lsls	r2, r3, #2
 108 004e 1F4B     		ldr	r3, .L10+12
 109 0050 1A44     		add	r2, r2, r3
 110 0052 5368     		ldr	r3, [r2, #4]
 111 0054 23B9     		cbnz	r3, .L5
 112 0056 4FF47671 		mov	r1, #984
 113 005a 1D48     		ldr	r0, .L10+16
 114 005c FFF7FEFF 		bl	Cy_SysLib_AssertFailed
 115              	.LVL11:
 116              	.L5:
 985:Generated_Source\PSoC6/ADC_1.h **** 
 986:Generated_Source\PSoC6/ADC_1.h ****     return Cy_SAR_GetResult16(ADC_1_SAR__HW, chan);
 117              		.loc 3 986 0
ARM GAS  C:\Users\43479\AppData\Local\Temp\ccqwRonb.s 			page 36


 118 0060 0021     		movs	r1, #0
 119 0062 1848     		ldr	r0, .L10+4
 120 0064 FFF7FEFF 		bl	Cy_SAR_GetResult16
 121              	.LVL12:
 122 0068 8046     		mov	r8, r0
 123              	.LVL13:
 124              	.LBE67:
 125              	.LBE66:
 352:host_main.c   ****             ADC_1_StopConvert();
 353:host_main.c   ****             countReference = ADC_1_GetResult16(0);
 354:host_main.c   ****             matrix[i][j] = ADC_1_CountsTo_Volts(0, countReference); 
 126              		.loc 1 354 0
 127 006a 3546     		mov	r5, r6
 128 006c 2746     		mov	r7, r4
 129              	.LVL14:
 130              	.LBB68:
 131              	.LBB69:
 987:Generated_Source\PSoC6/ADC_1.h **** }
 988:Generated_Source\PSoC6/ADC_1.h **** 
 989:Generated_Source\PSoC6/ADC_1.h **** /*******************************************************************************
 990:Generated_Source\PSoC6/ADC_1.h **** * Function Name: ADC_1_GetResult32
 991:Generated_Source\PSoC6/ADC_1.h **** ****************************************************************************//**
 992:Generated_Source\PSoC6/ADC_1.h **** *
 993:Generated_Source\PSoC6/ADC_1.h **** * \brief Gets the data available in the channel result data register.
 994:Generated_Source\PSoC6/ADC_1.h **** *
 995:Generated_Source\PSoC6/ADC_1.h **** * \param chan The ADC_1 channel to read the result from. The first
 996:Generated_Source\PSoC6/ADC_1.h **** * channel is 0.
 997:Generated_Source\PSoC6/ADC_1.h **** *
 998:Generated_Source\PSoC6/ADC_1.h **** * \return Returns converted data as a signed 32-bit integer.
 999:Generated_Source\PSoC6/ADC_1.h **** *
1000:Generated_Source\PSoC6/ADC_1.h **** * \sideeffect None
1001:Generated_Source\PSoC6/ADC_1.h **** *
1002:Generated_Source\PSoC6/ADC_1.h **** *******************************************************************************/
1003:Generated_Source\PSoC6/ADC_1.h **** __STATIC_INLINE int32_t ADC_1_GetResult32(uint32_t chan)
1004:Generated_Source\PSoC6/ADC_1.h **** {
1005:Generated_Source\PSoC6/ADC_1.h ****     int32_t finalResult;
1006:Generated_Source\PSoC6/ADC_1.h **** 
1007:Generated_Source\PSoC6/ADC_1.h ****     /* Halt CPU in debug mode if channel is out of valid range */
1008:Generated_Source\PSoC6/ADC_1.h ****     CY_ASSERT(chan < ADC_1_allConfigs[ADC_1_currentConfig].numChannels);
1009:Generated_Source\PSoC6/ADC_1.h **** 
1010:Generated_Source\PSoC6/ADC_1.h ****     finalResult = Cy_SAR_GetResult32(ADC_1_SAR__HW, chan);
1011:Generated_Source\PSoC6/ADC_1.h **** 
1012:Generated_Source\PSoC6/ADC_1.h ****     return finalResult;
1013:Generated_Source\PSoC6/ADC_1.h **** }
1014:Generated_Source\PSoC6/ADC_1.h **** 
1015:Generated_Source\PSoC6/ADC_1.h **** /*******************************************************************************
1016:Generated_Source\PSoC6/ADC_1.h **** * Function Name: ADC_1_SetLowLimit
1017:Generated_Source\PSoC6/ADC_1.h **** ****************************************************************************//**
1018:Generated_Source\PSoC6/ADC_1.h **** *
1019:Generated_Source\PSoC6/ADC_1.h **** * \brief Sets the low limit parameter for a limit condition.
1020:Generated_Source\PSoC6/ADC_1.h **** *
1021:Generated_Source\PSoC6/ADC_1.h **** * \param lowLimit The low limit for a limit condition.
1022:Generated_Source\PSoC6/ADC_1.h **** *
1023:Generated_Source\PSoC6/ADC_1.h **** * \return None
1024:Generated_Source\PSoC6/ADC_1.h **** *
1025:Generated_Source\PSoC6/ADC_1.h **** * \sideeffect None
1026:Generated_Source\PSoC6/ADC_1.h **** *
ARM GAS  C:\Users\43479\AppData\Local\Temp\ccqwRonb.s 			page 37


1027:Generated_Source\PSoC6/ADC_1.h **** *******************************************************************************/
1028:Generated_Source\PSoC6/ADC_1.h **** __STATIC_INLINE void ADC_1_SetLowLimit(uint32_t lowLimit)
1029:Generated_Source\PSoC6/ADC_1.h **** {
1030:Generated_Source\PSoC6/ADC_1.h ****     Cy_SAR_SetLowLimit(ADC_1_SAR__HW, lowLimit);
1031:Generated_Source\PSoC6/ADC_1.h **** }
1032:Generated_Source\PSoC6/ADC_1.h **** 
1033:Generated_Source\PSoC6/ADC_1.h **** /*******************************************************************************
1034:Generated_Source\PSoC6/ADC_1.h **** * Function Name: ADC_1_SetHighLimit
1035:Generated_Source\PSoC6/ADC_1.h **** ****************************************************************************//**
1036:Generated_Source\PSoC6/ADC_1.h **** *
1037:Generated_Source\PSoC6/ADC_1.h **** * \brief Sets the high limit parameter for a limit condition.
1038:Generated_Source\PSoC6/ADC_1.h **** *
1039:Generated_Source\PSoC6/ADC_1.h **** * \param highLimit The high limit for a limit condition.
1040:Generated_Source\PSoC6/ADC_1.h **** *
1041:Generated_Source\PSoC6/ADC_1.h **** * \return None
1042:Generated_Source\PSoC6/ADC_1.h **** *
1043:Generated_Source\PSoC6/ADC_1.h **** * \sideeffect None
1044:Generated_Source\PSoC6/ADC_1.h **** *
1045:Generated_Source\PSoC6/ADC_1.h **** *******************************************************************************/
1046:Generated_Source\PSoC6/ADC_1.h **** __STATIC_INLINE void ADC_1_SetHighLimit(uint32_t highLimit)
1047:Generated_Source\PSoC6/ADC_1.h **** {
1048:Generated_Source\PSoC6/ADC_1.h ****     Cy_SAR_SetHighLimit(ADC_1_SAR__HW, highLimit);
1049:Generated_Source\PSoC6/ADC_1.h **** }
1050:Generated_Source\PSoC6/ADC_1.h **** 
1051:Generated_Source\PSoC6/ADC_1.h **** /*******************************************************************************
1052:Generated_Source\PSoC6/ADC_1.h **** * Function Name: ADC_1_SetLimitMask
1053:Generated_Source\PSoC6/ADC_1.h **** ****************************************************************************//**
1054:Generated_Source\PSoC6/ADC_1.h **** *
1055:Generated_Source\PSoC6/ADC_1.h **** * \brief Sets the channel limit condition mask.
1056:Generated_Source\PSoC6/ADC_1.h **** *
1057:Generated_Source\PSoC6/ADC_1.h **** *
1058:Generated_Source\PSoC6/ADC_1.h **** * \param limitMask
1059:Generated_Source\PSoC6/ADC_1.h **** * Sets which channels can cause a limit condition interrupt.
1060:Generated_Source\PSoC6/ADC_1.h **** * Bit N of the mask enables the limit condition interrupt for channel N.
1061:Generated_Source\PSoC6/ADC_1.h **** * The limitMask cannot be larger than the number of channels.
1062:Generated_Source\PSoC6/ADC_1.h **** * If a channel is not enabled, it cannot cause any interrupts.
1063:Generated_Source\PSoC6/ADC_1.h **** *
1064:Generated_Source\PSoC6/ADC_1.h **** * \return None
1065:Generated_Source\PSoC6/ADC_1.h **** *
1066:Generated_Source\PSoC6/ADC_1.h **** * \sideeffect None
1067:Generated_Source\PSoC6/ADC_1.h **** *
1068:Generated_Source\PSoC6/ADC_1.h **** *******************************************************************************/
1069:Generated_Source\PSoC6/ADC_1.h **** __STATIC_INLINE void ADC_1_SetLimitMask(uint32_t limitMask)
1070:Generated_Source\PSoC6/ADC_1.h **** {
1071:Generated_Source\PSoC6/ADC_1.h ****     Cy_SAR_SetRangeInterruptMask(ADC_1_SAR__HW, limitMask);
1072:Generated_Source\PSoC6/ADC_1.h **** }
1073:Generated_Source\PSoC6/ADC_1.h **** 
1074:Generated_Source\PSoC6/ADC_1.h **** /*******************************************************************************
1075:Generated_Source\PSoC6/ADC_1.h **** * Function Name: ADC_1_SetSatMask
1076:Generated_Source\PSoC6/ADC_1.h **** ****************************************************************************//**
1077:Generated_Source\PSoC6/ADC_1.h **** *
1078:Generated_Source\PSoC6/ADC_1.h **** * \brief Sets the channel saturation event mask.
1079:Generated_Source\PSoC6/ADC_1.h **** *
1080:Generated_Source\PSoC6/ADC_1.h **** * \param satMask
1081:Generated_Source\PSoC6/ADC_1.h **** * Sets which channels can cause a saturation event interrupt.
1082:Generated_Source\PSoC6/ADC_1.h **** * Bit N of the mask enables the saturation event interrupt for channel N.
1083:Generated_Source\PSoC6/ADC_1.h **** * The satMask cannot be larger than the number of channels.
ARM GAS  C:\Users\43479\AppData\Local\Temp\ccqwRonb.s 			page 38


1084:Generated_Source\PSoC6/ADC_1.h **** * If a channel is not enabled, it cannot cause any interrupts.
1085:Generated_Source\PSoC6/ADC_1.h **** *
1086:Generated_Source\PSoC6/ADC_1.h **** * \return None
1087:Generated_Source\PSoC6/ADC_1.h **** *
1088:Generated_Source\PSoC6/ADC_1.h **** * \sideeffect None
1089:Generated_Source\PSoC6/ADC_1.h **** *
1090:Generated_Source\PSoC6/ADC_1.h **** *******************************************************************************/
1091:Generated_Source\PSoC6/ADC_1.h **** __STATIC_INLINE void ADC_1_SetSatMask(uint32_t satMask)
1092:Generated_Source\PSoC6/ADC_1.h **** {
1093:Generated_Source\PSoC6/ADC_1.h ****     Cy_SAR_SetSatInterruptMask(ADC_1_SAR__HW, satMask);
1094:Generated_Source\PSoC6/ADC_1.h **** }
1095:Generated_Source\PSoC6/ADC_1.h **** 
1096:Generated_Source\PSoC6/ADC_1.h **** /*******************************************************************************
1097:Generated_Source\PSoC6/ADC_1.h **** * Function Name: ADC_1_SetOffset
1098:Generated_Source\PSoC6/ADC_1.h **** ****************************************************************************//**
1099:Generated_Source\PSoC6/ADC_1.h **** *
1100:Generated_Source\PSoC6/ADC_1.h **** * \brief Sets the ADC offset that is used by the functions ADC_1_CountsTo_uVolts,
1101:Generated_Source\PSoC6/ADC_1.h **** * ADC_1_CountsTo_mVolts, and ADC_1_CountsTo_Volts.
1102:Generated_Source\PSoC6/ADC_1.h **** *
1103:Generated_Source\PSoC6/ADC_1.h **** * Offset is applied to counts before unit scaling and gain.  All CountsTo_[mV, uV, V]olts()
1104:Generated_Source\PSoC6/ADC_1.h **** * functions use the following equation:
1105:Generated_Source\PSoC6/ADC_1.h **** *     V = (Counts/AvgDivider - Offset)*TEN_VOLT/Gain
1106:Generated_Source\PSoC6/ADC_1.h **** * See CountsTo_Volts() for more about this formula.
1107:Generated_Source\PSoC6/ADC_1.h **** *
1108:Generated_Source\PSoC6/ADC_1.h **** * To set channel 0's offset based on known V_offset_mV, use:
1109:Generated_Source\PSoC6/ADC_1.h **** *     ADC_1_SetOffset(0uL, -1 * V_offset_mV * (1uL << (Resolution - 1)) / V_ref_mV);
1110:Generated_Source\PSoC6/ADC_1.h **** *
1111:Generated_Source\PSoC6/ADC_1.h **** * \param chan ADC_1 channel number.
1112:Generated_Source\PSoC6/ADC_1.h **** *
1113:Generated_Source\PSoC6/ADC_1.h **** * \param offset This value is a measured value when the inputs are shorted or
1114:Generated_Source\PSoC6/ADC_1.h **** * connected to the same input voltage.
1115:Generated_Source\PSoC6/ADC_1.h **** *
1116:Generated_Source\PSoC6/ADC_1.h **** * \return cy_en_sar_status_t
1117:Generated_Source\PSoC6/ADC_1.h **** * - CY_SAR_BAD_PARAM: channel number is equal to or greater than CY_SAR_MAX_NUM_CHANNELS
1118:Generated_Source\PSoC6/ADC_1.h **** * - CY_SAR_SUCCESS: offset was set successfully
1119:Generated_Source\PSoC6/ADC_1.h **** *
1120:Generated_Source\PSoC6/ADC_1.h **** * \sideeffect None
1121:Generated_Source\PSoC6/ADC_1.h **** *
1122:Generated_Source\PSoC6/ADC_1.h **** *******************************************************************************/
1123:Generated_Source\PSoC6/ADC_1.h **** __STATIC_INLINE cy_en_sar_status_t ADC_1_SetOffset(uint32_t chan, int16_t offset)
1124:Generated_Source\PSoC6/ADC_1.h **** {
1125:Generated_Source\PSoC6/ADC_1.h ****     /* Halt CPU in debug mode if channel is out of valid range */
1126:Generated_Source\PSoC6/ADC_1.h ****     CY_ASSERT(chan < ADC_1_allConfigs[ADC_1_currentConfig].numChannels);
1127:Generated_Source\PSoC6/ADC_1.h **** 
1128:Generated_Source\PSoC6/ADC_1.h ****     return Cy_SAR_SetOffset(chan, offset);
1129:Generated_Source\PSoC6/ADC_1.h **** }
1130:Generated_Source\PSoC6/ADC_1.h **** 
1131:Generated_Source\PSoC6/ADC_1.h **** /*******************************************************************************
1132:Generated_Source\PSoC6/ADC_1.h **** * Function Name: ADC_1_SetGain
1133:Generated_Source\PSoC6/ADC_1.h **** ****************************************************************************//**
1134:Generated_Source\PSoC6/ADC_1.h **** *
1135:Generated_Source\PSoC6/ADC_1.h **** * \brief Sets the ADC_1 gain in counts per 10 volt for the voltage
1136:Generated_Source\PSoC6/ADC_1.h **** * conversion functions. This value is set by default by the reference and
1137:Generated_Source\PSoC6/ADC_1.h **** * input range settings. Gain is applied after offset and unit scaling.  All
1138:Generated_Source\PSoC6/ADC_1.h **** * CountsTo_[mV, uV, V]olts() functions use the following equation:
1139:Generated_Source\PSoC6/ADC_1.h **** *     V = (Counts/AvgDivider - Offset)*TEN_VOLT/Gain
1140:Generated_Source\PSoC6/ADC_1.h **** * See CountsTo_Volts() for more about this formula.
ARM GAS  C:\Users\43479\AppData\Local\Temp\ccqwRonb.s 			page 39


1141:Generated_Source\PSoC6/ADC_1.h **** *
1142:Generated_Source\PSoC6/ADC_1.h **** * To set channel 0's gain based on known V_ref_mV, use:
1143:Generated_Source\PSoC6/ADC_1.h **** *     ADC_1_SetGain(0uL, 10000 * (1uL << (Resolution - 1)) / V_ref_mV);
1144:Generated_Source\PSoC6/ADC_1.h **** *
1145:Generated_Source\PSoC6/ADC_1.h **** * \param chan ADC_1 channel number.
1146:Generated_Source\PSoC6/ADC_1.h **** *
1147:Generated_Source\PSoC6/ADC_1.h **** * \param adcGain ADC_1 gain in counts per 10 volt.
1148:Generated_Source\PSoC6/ADC_1.h **** *
1149:Generated_Source\PSoC6/ADC_1.h **** * \return cy_en_sar_status_t
1150:Generated_Source\PSoC6/ADC_1.h **** * - CY_SAR_BAD_PARAM: channel number is equal to or greater than CY_SAR_MAX_NUM_CHANNELS
1151:Generated_Source\PSoC6/ADC_1.h **** * - CY_SAR_SUCCESS: gain was set successfully
1152:Generated_Source\PSoC6/ADC_1.h **** *
1153:Generated_Source\PSoC6/ADC_1.h **** * \sideeffect None
1154:Generated_Source\PSoC6/ADC_1.h **** *
1155:Generated_Source\PSoC6/ADC_1.h **** *******************************************************************************/
1156:Generated_Source\PSoC6/ADC_1.h **** __STATIC_INLINE cy_en_sar_status_t ADC_1_SetGain(uint32_t chan, int32_t adcGain)
1157:Generated_Source\PSoC6/ADC_1.h **** {
1158:Generated_Source\PSoC6/ADC_1.h ****     /* Halt CPU in debug mode if channel is out of valid range */
1159:Generated_Source\PSoC6/ADC_1.h ****     CY_ASSERT(chan < ADC_1_allConfigs[ADC_1_currentConfig].numChannels);
1160:Generated_Source\PSoC6/ADC_1.h **** 
1161:Generated_Source\PSoC6/ADC_1.h ****     return Cy_SAR_SetGain(chan, adcGain);
1162:Generated_Source\PSoC6/ADC_1.h **** }
1163:Generated_Source\PSoC6/ADC_1.h **** 
1164:Generated_Source\PSoC6/ADC_1.h **** /*******************************************************************************
1165:Generated_Source\PSoC6/ADC_1.h **** * Function Name: ADC_1_CountsTo_Volts
1166:Generated_Source\PSoC6/ADC_1.h **** ****************************************************************************//**
1167:Generated_Source\PSoC6/ADC_1.h **** *
1168:Generated_Source\PSoC6/ADC_1.h **** * \brief Converts the ADC output to Volts as a float32. For example, if the ADC
1169:Generated_Source\PSoC6/ADC_1.h **** * measured 0.534 volts, the return value would be 0.534.
1170:Generated_Source\PSoC6/ADC_1.h **** * The calculation of voltage depends on the contents of Cy_SAR_offset[],
1171:Generated_Source\PSoC6/ADC_1.h **** * Cy_SAR_countsPer10Volt[], and other parameters.  The equation used is:
1172:Generated_Source\PSoC6/ADC_1.h **** *
1173:Generated_Source\PSoC6/ADC_1.h **** *     V = (Counts/AvgDivider - Offset)*TEN_VOLT/Gain
1174:Generated_Source\PSoC6/ADC_1.h **** * -Counts = Raw Counts from SAR register
1175:Generated_Source\PSoC6/ADC_1.h **** * -AvgDivider = divider based on averaging mode
1176:Generated_Source\PSoC6/ADC_1.h **** *     -Sequential, Sum: AvgDivider = number averaged
1177:Generated_Source\PSoC6/ADC_1.h **** *         Note: The divider should be a maximum of 16. If using more averages,
1178:Generated_Source\PSoC6/ADC_1.h **** *         pre-scale Counts by (number averaged / 16)
1179:Generated_Source\PSoC6/ADC_1.h **** *     -Interleaved, Sum: AvgDivider = number averaged
1180:Generated_Source\PSoC6/ADC_1.h **** *     -Sequential, Fixed: AvgDivider = 1
1181:Generated_Source\PSoC6/ADC_1.h **** * -Offset = Cy_SAR_offset[]
1182:Generated_Source\PSoC6/ADC_1.h **** * -TEN_VOLT = 10V constant and unit scalar.
1183:Generated_Source\PSoC6/ADC_1.h **** * -Gain = Cy_SAR_countsPer10Volt[]
1184:Generated_Source\PSoC6/ADC_1.h **** *
1185:Generated_Source\PSoC6/ADC_1.h **** * When the Vref is based on Vdda, the value used for Vdda is set for the project
1186:Generated_Source\PSoC6/ADC_1.h **** * in the System tab of the DWR.
1187:Generated_Source\PSoC6/ADC_1.h **** *
1188:Generated_Source\PSoC6/ADC_1.h **** * \param chan ADC_1 channel number.
1189:Generated_Source\PSoC6/ADC_1.h **** *
1190:Generated_Source\PSoC6/ADC_1.h **** * \param adcCounts Result from the ADC_1 conversion.
1191:Generated_Source\PSoC6/ADC_1.h **** *
1192:Generated_Source\PSoC6/ADC_1.h **** * \return Result in Volts.
1193:Generated_Source\PSoC6/ADC_1.h **** *
1194:Generated_Source\PSoC6/ADC_1.h **** * \sideeffect None
1195:Generated_Source\PSoC6/ADC_1.h **** *
1196:Generated_Source\PSoC6/ADC_1.h **** *******************************************************************************/
1197:Generated_Source\PSoC6/ADC_1.h **** __STATIC_INLINE float32_t ADC_1_CountsTo_Volts(uint32_t chan, int16_t adcCounts)
ARM GAS  C:\Users\43479\AppData\Local\Temp\ccqwRonb.s 			page 40


1198:Generated_Source\PSoC6/ADC_1.h **** {
1199:Generated_Source\PSoC6/ADC_1.h ****     /* Halt CPU in debug mode if channel is out of valid range */
1200:Generated_Source\PSoC6/ADC_1.h ****     CY_ASSERT(chan < ADC_1_allConfigs[ADC_1_currentConfig].numChannels);
 132              		.loc 3 1200 0
 133 006e 164B     		ldr	r3, .L10+8
 134 0070 1B68     		ldr	r3, [r3]
 135 0072 03EB8303 		add	r3, r3, r3, lsl #2
 136 0076 9A00     		lsls	r2, r3, #2
 137 0078 144B     		ldr	r3, .L10+12
 138 007a 1A44     		add	r2, r2, r3
 139 007c 5368     		ldr	r3, [r2, #4]
 140 007e 23B9     		cbnz	r3, .L6
 141 0080 4FF49661 		mov	r1, #1200
 142 0084 1248     		ldr	r0, .L10+16
 143 0086 FFF7FEFF 		bl	Cy_SysLib_AssertFailed
 144              	.LVL15:
 145              	.L6:
1201:Generated_Source\PSoC6/ADC_1.h **** 
1202:Generated_Source\PSoC6/ADC_1.h ****     return Cy_SAR_CountsTo_Volts(ADC_1_SAR__HW, chan, adcCounts);
 146              		.loc 3 1202 0
 147 008a 4246     		mov	r2, r8
 148 008c 0021     		movs	r1, #0
 149 008e 0D48     		ldr	r0, .L10+4
 150 0090 FFF7FEFF 		bl	Cy_SAR_CountsTo_Volts
 151              	.LVL16:
 152              	.LBE69:
 153              	.LBE68:
 154              		.loc 1 354 0
 155 0094 05EB4505 		add	r5, r5, r5, lsl #1
 156 0098 6B00     		lsls	r3, r5, #1
 157 009a 1F44     		add	r7, r7, r3
 158 009c 0D4B     		ldr	r3, .L10+20
 159 009e 03EB8707 		add	r7, r3, r7, lsl #2
 160 00a2 3860     		str	r0, [r7]	@ float
 343:host_main.c   ****         {
 161              		.loc 1 343 0
 162 00a4 0134     		adds	r4, r4, #1
 163              	.LVL17:
 164 00a6 E4B2     		uxtb	r4, r4
 165              	.LVL18:
 166              	.L3:
 343:host_main.c   ****         {
 167              		.loc 1 343 0 is_stmt 0 discriminator 1
 168 00a8 052C     		cmp	r4, #5
 169 00aa BBD9     		bls	.L7
 170              	.LBE63:
 337:host_main.c   ****     {
 171              		.loc 1 337 0 is_stmt 1 discriminator 2
 172 00ac 0136     		adds	r6, r6, #1
 173              	.LVL19:
 174 00ae F6B2     		uxtb	r6, r6
 175              	.LVL20:
 176              	.L2:
 337:host_main.c   ****     {
 177              		.loc 1 337 0 is_stmt 0 discriminator 1
 178 00b0 052E     		cmp	r6, #5
 179 00b2 AFD9     		bls	.L8
ARM GAS  C:\Users\43479\AppData\Local\Temp\ccqwRonb.s 			page 41


 180              	.LBE62:
 355:host_main.c   **** //                printf(" %.2fv\t", matrix[i][j]);
 356:host_main.c   ****             
 357:host_main.c   **** 
 358:host_main.c   ****         }  
 359:host_main.c   **** //            printf("\r\n");
 360:host_main.c   **** 
 361:host_main.c   ****     }
 362:host_main.c   ****     printf("4");
 181              		.loc 1 362 0 is_stmt 1
 182 00b4 3420     		movs	r0, #52
 183 00b6 FFF7FEFF 		bl	putchar
 184              	.LVL21:
 185 00ba BDE8F081 		pop	{r4, r5, r6, r7, r8, pc}
 186              	.LVL22:
 187              	.L11:
 188 00be 00BF     		.align	2
 189              	.L10:
 190 00c0 00003840 		.word	1077411840
 191 00c4 00001D41 		.word	1092419584
 192 00c8 00000000 		.word	ADC_1_currentConfig
 193 00cc 00000000 		.word	ADC_1_allConfigs
 194 00d0 00000000 		.word	.LC0
 195 00d4 00000000 		.word	matrix
 196              		.cfi_endproc
 197              	.LFE761:
 198              		.size	TimerInterruptHandler, .-TimerInterruptHandler
 199              		.section	.text.StackEventHandler,"ax",%progbits
 200              		.align	2
 201              		.global	StackEventHandler
 202              		.thumb
 203              		.thumb_func
 204              		.type	StackEventHandler, %function
 205              	StackEventHandler:
 206              	.LFB763:
 363:host_main.c   **** //    Cy_GPIO_Write(Debug_PORT,Debug_NUM, 0);
 364:host_main.c   **** }
 365:host_main.c   **** 
 366:host_main.c   **** /*******************************************************************************
 367:host_main.c   **** * Function Name: Ble_Init()
 368:host_main.c   **** ********************************************************************************
 369:host_main.c   **** *
 370:host_main.c   **** * Summary:
 371:host_main.c   **** *   This function initializes BLE.
 372:host_main.c   **** *
 373:host_main.c   **** * Return:
 374:host_main.c   **** *   None
 375:host_main.c   **** *
 376:host_main.c   **** *******************************************************************************/
 377:host_main.c   **** void Ble_Init(void)
 378:host_main.c   **** {
 379:host_main.c   ****     cy_en_ble_api_result_t apiResult;
 380:host_main.c   ****     cy_stc_ble_stack_lib_version_t stackVersion;
 381:host_main.c   ****     
 382:host_main.c   ****     /* Start Host of BLE Component and register generic event handler */
 383:host_main.c   ****     apiResult = Cy_BLE_Start(StackEventHandler);
 384:host_main.c   ****     
ARM GAS  C:\Users\43479\AppData\Local\Temp\ccqwRonb.s 			page 42


 385:host_main.c   ****     if(apiResult != CY_BLE_SUCCESS)
 386:host_main.c   ****     {
 387:host_main.c   ****         DEBUG_BLE("Cy_BLE_Start API Error: %x \r\n", apiResult);
 388:host_main.c   ****     }
 389:host_main.c   ****     else
 390:host_main.c   ****     {
 391:host_main.c   ****         DEBUG_BLE("BLE Stack Initialized...\r\n");
 392:host_main.c   ****     }
 393:host_main.c   ****     
 394:host_main.c   ****     apiResult = Cy_BLE_GetStackLibraryVersion(&stackVersion);
 395:host_main.c   ****     
 396:host_main.c   ****     if(apiResult != CY_BLE_SUCCESS)
 397:host_main.c   ****     {
 398:host_main.c   ****         DEBUG_BLE("Cy_BLE_GetStackLibraryVersion API Error: 0x%2.2x \r\n",\
 399:host_main.c   ****                   apiResult);
 400:host_main.c   ****     }
 401:host_main.c   ****     else
 402:host_main.c   ****     {
 403:host_main.c   ****         DEBUG_BLE("Stack Version: %d.%d.%d.%d \r\n", stackVersion.majorVersion, 
 404:host_main.c   ****         stackVersion.minorVersion, stackVersion.patch, stackVersion.buildNumber);
 405:host_main.c   ****     }
 406:host_main.c   ****     
 407:host_main.c   **** }
 408:host_main.c   **** 
 409:host_main.c   **** /*******************************************************************************
 410:host_main.c   **** * Function Name: StackEventHandler()
 411:host_main.c   **** ********************************************************************************
 412:host_main.c   **** *
 413:host_main.c   **** * Summary:
 414:host_main.c   **** *   This is an event callback function to receive events from the BLE Component.
 415:host_main.c   **** *
 416:host_main.c   **** *  event - the event code
 417:host_main.c   **** *  *eventParam - the event parameters
 418:host_main.c   **** *
 419:host_main.c   **** * Return:
 420:host_main.c   **** *   None
 421:host_main.c   **** *
 422:host_main.c   **** *******************************************************************************/
 423:host_main.c   **** void StackEventHandler(uint32 event, void* eventParam)
 424:host_main.c   **** {
 207              		.loc 1 424 0
 208              		.cfi_startproc
 209              		@ args = 0, pretend = 0, frame = 24
 210              		@ frame_needed = 0, uses_anonymous_args = 0
 211              	.LVL23:
 425:host_main.c   ****     cy_en_ble_api_result_t apiResult;
 426:host_main.c   ****     
 427:host_main.c   ****     switch(event)
 212              		.loc 1 427 0
 213 0000 44F20703 		movw	r3, #16391
 214 0004 9842     		cmp	r0, r3
 215 0006 00F09C80 		beq	.L14
 424:host_main.c   ****     cy_en_ble_api_result_t apiResult;
 216              		.loc 1 424 0
 217 000a 30B5     		push	{r4, r5, lr}
 218              		.cfi_def_cfa_offset 12
 219              		.cfi_offset 4, -12
ARM GAS  C:\Users\43479\AppData\Local\Temp\ccqwRonb.s 			page 43


 220              		.cfi_offset 5, -8
 221              		.cfi_offset 14, -4
 222 000c 8BB0     		sub	sp, sp, #44
 223              		.cfi_def_cfa_offset 56
 224 000e 0C46     		mov	r4, r1
 225              		.loc 1 427 0
 226 0010 1BD8     		bhi	.L15
 227 0012 42F21503 		movw	r3, #8213
 228 0016 9842     		cmp	r0, r3
 229 0018 00F09F80 		beq	.L16
 230 001c 07D8     		bhi	.L17
 231 001e B0F5805F 		cmp	r0, #4096
 232 0022 2ED0     		beq	.L18
 233 0024 42F20903 		movw	r3, #8201
 234 0028 9842     		cmp	r0, r3
 235 002a 76D0     		beq	.L19
 236 002c 0CE1     		b	.L12
 237              	.L17:
 238 002e 43F20303 		movw	r3, #12291
 239 0032 9842     		cmp	r0, r3
 240 0034 39D0     		beq	.L35
 241 0036 44F20603 		movw	r3, #16390
 242 003a 9842     		cmp	r0, r3
 243 003c 39D0     		beq	.L21
 244 003e 43F20203 		movw	r3, #12290
 245 0042 9842     		cmp	r0, r3
 246 0044 40F00081 		bne	.L12
 247 0048 23E0     		b	.L22
 248              	.L15:
 249 004a 45F20103 		movw	r3, #20481
 250 004e 9842     		cmp	r0, r3
 251 0050 00F08F80 		beq	.L23
 252 0054 08D8     		bhi	.L24
 253 0056 44F20803 		movw	r3, #16392
 254 005a 9842     		cmp	r0, r3
 255 005c 75D0     		beq	.L25
 256 005e 44F21003 		movw	r3, #16400
 257 0062 9842     		cmp	r0, r3
 258 0064 40D0     		beq	.L26
 259 0066 EFE0     		b	.L12
 260              	.L24:
 261 0068 45F20303 		movw	r3, #20483
 262 006c 9842     		cmp	r0, r3
 263 006e 00F0B080 		beq	.L27
 264 0072 C0F09E80 		bcc	.L28
 265 0076 45F20C03 		movw	r3, #20492
 266 007a 9842     		cmp	r0, r3
 267 007c 00F0B280 		beq	.L29
 268 0080 E2E0     		b	.L12
 269              	.L18:
 428:host_main.c   ****     {
 429:host_main.c   ****          /* There are some events generated by the BLE component
 430:host_main.c   ****         *  that are not required for this code example. */
 431:host_main.c   ****         
 432:host_main.c   ****         /**********************************************************
 433:host_main.c   ****         *                       General Events
 434:host_main.c   ****         ***********************************************************/
ARM GAS  C:\Users\43479\AppData\Local\Temp\ccqwRonb.s 			page 44


 435:host_main.c   ****         /* This event is received when the BLE component is Started */
 436:host_main.c   ****         case CY_BLE_EVT_STACK_ON:
 437:host_main.c   ****         {
 438:host_main.c   ****             DEBUG_BLE("CY_BLE_EVT_STACK_ON, Start Advertisement \r\n");    
 439:host_main.c   ****             
 440:host_main.c   ****             apiResult = Cy_BLE_GAP_SetBdAddress((cy_stc_ble_gap_bd_addr_t  *)
 270              		.loc 1 440 0
 271 0082 7248     		ldr	r0, .L38
 272              	.LVL24:
 273 0084 FFF7FEFF 		bl	Cy_BLE_GAP_SetBdAddress
 274              	.LVL25:
 441:host_main.c   ****                                                &local_addr);
 442:host_main.c   ****             
 443:host_main.c   ****             if(apiResult != CY_BLE_SUCCESS)
 444:host_main.c   ****             {   
 445:host_main.c   ****                 DEBUG_BLE("Cy_BLE_GAP_SetBdAddress API Error: %d \r\n",
 446:host_main.c   ****                     apiResult);
 447:host_main.c   ****             }
 448:host_main.c   ****                         
 449:host_main.c   ****              DEBUG_BLE("CUSTOM_SERV0_CHAR0_DESC0_HANDLE (%d)"
 450:host_main.c   ****                 "\r\nCUSTOM_SERV0_CHAR0_HANDLE(%d)\r\n",
 451:host_main.c   ****                 CUSTOM_SERV0_CHAR0_DESC0_HANDLE, CUSTOM_SERV0_CHAR0_HANDLE);
 452:host_main.c   ****             
 453:host_main.c   ****             /* Enter into discoverable mode so that remote device can search it */
 454:host_main.c   ****             Cy_BLE_GAPP_StartAdvertisement(CY_BLE_ADVERTISING_FAST,
 275              		.loc 1 454 0
 276 0088 0021     		movs	r1, #0
 277 008a 0846     		mov	r0, r1
 278 008c FFF7FEFF 		bl	Cy_BLE_GAPP_StartAdvertisement
 279              	.LVL26:
 455:host_main.c   ****                                    CY_BLE_PERIPHERAL_CONFIGURATION_0_INDEX);
 456:host_main.c   ****             
 457:host_main.c   ****             break;
 280              		.loc 1 457 0
 281 0090 DAE0     		b	.L12
 282              	.LVL27:
 283              	.L22:
 284              	.LBB70:
 458:host_main.c   ****         }    
 459:host_main.c   ****         /* This event is received when there is a timeout. */
 460:host_main.c   ****         case CY_BLE_EVT_TIMEOUT:
 461:host_main.c   ****         {
 462:host_main.c   **** 			DEBUG_BLE("CY_BLE_EVT_TIMEOUT \r\n"); 
 463:host_main.c   ****             
 464:host_main.c   ****             break;
 465:host_main.c   **** 		}   
 466:host_main.c   ****         /* This event indicates that some internal HW error has occurred. */    
 467:host_main.c   **** 		case CY_BLE_EVT_HARDWARE_ERROR:    
 468:host_main.c   ****         {
 469:host_main.c   **** 			DEBUG_BLE("Hardware Error \r\n");
 470:host_main.c   ****             
 471:host_main.c   **** 			break;
 472:host_main.c   **** 		}   
 473:host_main.c   ****         /*  This event will be triggered by host stack if BLE stack is busy or 
 474:host_main.c   ****          *  not busy. Parameter corresponding to this event will be the state 
 475:host_main.c   ****     	 *  of BLE stack.
 476:host_main.c   ****          *  BLE stack busy = CY_BLE_STACK_STATE_BUSY,
ARM GAS  C:\Users\43479\AppData\Local\Temp\ccqwRonb.s 			page 45


 477:host_main.c   ****     	 *  BLE stack not busy = CY_BLE_STACK_STATE_FREE 
 478:host_main.c   ****          */
 479:host_main.c   ****     	case CY_BLE_EVT_STACK_BUSY_STATUS:
 480:host_main.c   ****         {
 481:host_main.c   **** 			DEBUG_BLE("CY_BLE_EVT_STACK_BUSY_STATUS: %x\r\n", *(uint8 *)eventParam);
 482:host_main.c   ****             
 483:host_main.c   **** 			break;
 484:host_main.c   **** 		}
 485:host_main.c   ****         /* This event indicates completion of Set LE event mask. */
 486:host_main.c   ****         case CY_BLE_EVT_LE_SET_EVENT_MASK_COMPLETE:
 487:host_main.c   ****         {
 488:host_main.c   **** 			DEBUG_BLE("CY_BLE_EVT_LE_SET_EVENT_MASK_COMPLETE \r\n");
 489:host_main.c   ****             
 490:host_main.c   ****             break;
 491:host_main.c   **** 		}            
 492:host_main.c   ****         /* This event indicates set device address command completed. */
 493:host_main.c   ****         case CY_BLE_EVT_SET_DEVICE_ADDR_COMPLETE:
 494:host_main.c   ****         {
 495:host_main.c   ****             DEBUG_BLE("CY_BLE_EVT_SET_DEVICE_ADDR_COMPLETE \r\n");
 496:host_main.c   ****             
 497:host_main.c   ****             cy_stc_ble_events_param_generic_t *param = \
 498:host_main.c   **** 			(cy_stc_ble_events_param_generic_t *) eventParam;
 499:host_main.c   ****         
 500:host_main.c   ****             if( param->status != SUCCESS)
 285              		.loc 1 500 0
 286 0092 0B78     		ldrb	r3, [r1]	@ zero_extendqisi2
 287 0094 002B     		cmp	r3, #0
 288 0096 40F0D780 		bne	.L12
 501:host_main.c   ****             {
 502:host_main.c   ****                 DEBUG_BLE("Failed to Set Local BDAddress [Status 0x%02X]\r\n",\
 503:host_main.c   ****                     param->status);
 504:host_main.c   ****                
 505:host_main.c   ****             }
 506:host_main.c   ****             else
 507:host_main.c   ****             {
 508:host_main.c   ****                 DEBUG_BLE("Local Address Set successfully \r\n");
 509:host_main.c   ****                 DEBUG_BLE("BdAddress set to: %02X:%02X:%02X:%02X:%02X:%02X \r\n",\
 510:host_main.c   ****                     local_addr.bdAddr[5],local_addr.bdAddr[4], local_addr.bdAddr[3],\
 511:host_main.c   ****                     local_addr.bdAddr[2], local_addr.bdAddr[1], local_addr.bdAddr[0]);  
 512:host_main.c   ****                           
 513:host_main.c   ****                 Cy_BLE_GAPP_StartAdvertisement(CY_BLE_ADVERTISING_FAST,\
 289              		.loc 1 513 0
 290 009a 0021     		movs	r1, #0
 291              	.LVL28:
 292 009c 0846     		mov	r0, r1
 293              	.LVL29:
 294 009e FFF7FEFF 		bl	Cy_BLE_GAPP_StartAdvertisement
 295              	.LVL30:
 296 00a2 D1E0     		b	.L12
 297              	.LVL31:
 298              	.L30:
 299              	.LBE70:
 300              	.LBB71:
 514:host_main.c   **** 				CY_BLE_PERIPHERAL_CONFIGURATION_0_INDEX);
 515:host_main.c   ****             }
 516:host_main.c   ****             
 517:host_main.c   ****             break;
ARM GAS  C:\Users\43479\AppData\Local\Temp\ccqwRonb.s 			page 46


 518:host_main.c   ****         }
 519:host_main.c   ****             
 520:host_main.c   ****         /* This event indicates get device address command completed
 521:host_main.c   ****            successfully */
 522:host_main.c   ****         case CY_BLE_EVT_GET_DEVICE_ADDR_COMPLETE:
 523:host_main.c   ****         {
 524:host_main.c   **** 			DEBUG_BLE("CY_BLE_EVT_GET_DEVICE_ADDR_COMPLETE: ");
 525:host_main.c   ****             DEBUG_BLE("\n\rAdvertising with Address: ");
 526:host_main.c   ****             for(uint8_t i = CY_BLE_GAP_BD_ADDR_SIZE; i > 0u; i--)
 301              		.loc 1 526 0 discriminator 3
 302 00a4 013B     		subs	r3, r3, #1
 303              	.LVL32:
 304 00a6 DBB2     		uxtb	r3, r3
 305              	.LVL33:
 306 00a8 00E0     		b	.L20
 307              	.LVL34:
 308              	.L35:
 309              	.LBE71:
 427:host_main.c   ****     {
 310              		.loc 1 427 0
 311 00aa 0623     		movs	r3, #6
 312              	.L20:
 313              	.LVL35:
 314              	.LBB72:
 315              		.loc 1 526 0 discriminator 1
 316 00ac 002B     		cmp	r3, #0
 317 00ae F9D1     		bne	.L30
 318 00b0 CAE0     		b	.L12
 319              	.LVL36:
 320              	.L21:
 321 00b2 674B     		ldr	r3, .L38+4
 322 00b4 1B88     		ldrh	r3, [r3]	@ unaligned
 323 00b6 ADF81430 		strh	r3, [sp, #20]	@ unaligned
 324              	.LBE72:
 325              	.LBB73:
 326              	.LBB74:
 327              		.file 4 "Generated_Source\\PSoC6\\pdl\\middleware/ble/cy_ble_gap.h"
   1:Generated_Source\PSoC6\pdl\middleware/ble/cy_ble_gap.h **** /***************************************************************************//**
   2:Generated_Source\PSoC6\pdl\middleware/ble/cy_ble_gap.h **** * \file cy_ble_gap.h
   3:Generated_Source\PSoC6\pdl\middleware/ble/cy_ble_gap.h **** * \version 2.0
   4:Generated_Source\PSoC6\pdl\middleware/ble/cy_ble_gap.h **** *
   5:Generated_Source\PSoC6\pdl\middleware/ble/cy_ble_gap.h **** * \brief
   6:Generated_Source\PSoC6\pdl\middleware/ble/cy_ble_gap.h **** *  Contains the prototypes and constants used in the BLE GAP profile.
   7:Generated_Source\PSoC6\pdl\middleware/ble/cy_ble_gap.h **** *
   8:Generated_Source\PSoC6\pdl\middleware/ble/cy_ble_gap.h **** ********************************************************************************
   9:Generated_Source\PSoC6\pdl\middleware/ble/cy_ble_gap.h **** * \copyright
  10:Generated_Source\PSoC6\pdl\middleware/ble/cy_ble_gap.h **** * Copyright 2017-2018, Cypress Semiconductor Corporation.  All rights reserved.
  11:Generated_Source\PSoC6\pdl\middleware/ble/cy_ble_gap.h **** * You may use this file only in accordance with the license, terms, conditions,
  12:Generated_Source\PSoC6\pdl\middleware/ble/cy_ble_gap.h **** * disclaimers, and limitations in the end user license agreement accompanying
  13:Generated_Source\PSoC6\pdl\middleware/ble/cy_ble_gap.h **** * the software package with which this file was provided.
  14:Generated_Source\PSoC6\pdl\middleware/ble/cy_ble_gap.h **** *******************************************************************************/
  15:Generated_Source\PSoC6\pdl\middleware/ble/cy_ble_gap.h **** 
  16:Generated_Source\PSoC6\pdl\middleware/ble/cy_ble_gap.h **** 
  17:Generated_Source\PSoC6\pdl\middleware/ble/cy_ble_gap.h **** #ifndef CY_BLE_GAP_H
  18:Generated_Source\PSoC6\pdl\middleware/ble/cy_ble_gap.h **** #define CY_BLE_GAP_H
  19:Generated_Source\PSoC6\pdl\middleware/ble/cy_ble_gap.h ****     
  20:Generated_Source\PSoC6\pdl\middleware/ble/cy_ble_gap.h **** #include "cy_ble_config.h"
ARM GAS  C:\Users\43479\AppData\Local\Temp\ccqwRonb.s 			page 47


  21:Generated_Source\PSoC6\pdl\middleware/ble/cy_ble_gap.h **** 
  22:Generated_Source\PSoC6\pdl\middleware/ble/cy_ble_gap.h **** /***************************************
  23:Generated_Source\PSoC6\pdl\middleware/ble/cy_ble_gap.h **** * BLE Stack includes
  24:Generated_Source\PSoC6\pdl\middleware/ble/cy_ble_gap.h **** ***************************************/
  25:Generated_Source\PSoC6\pdl\middleware/ble/cy_ble_gap.h **** #include "cy_ble_stack_gatt.h"    
  26:Generated_Source\PSoC6\pdl\middleware/ble/cy_ble_gap.h **** #include "cy_ble_stack_gap.h"
  27:Generated_Source\PSoC6\pdl\middleware/ble/cy_ble_gap.h **** #include "cy_ble_stack_gap_central.h"
  28:Generated_Source\PSoC6\pdl\middleware/ble/cy_ble_gap.h **** #include "cy_ble_stack_gap_peripheral.h"
  29:Generated_Source\PSoC6\pdl\middleware/ble/cy_ble_gap.h **** 
  30:Generated_Source\PSoC6\pdl\middleware/ble/cy_ble_gap.h **** /* C binding of definitions if building with C++ compiler */
  31:Generated_Source\PSoC6\pdl\middleware/ble/cy_ble_gap.h **** #ifdef __cplusplus
  32:Generated_Source\PSoC6\pdl\middleware/ble/cy_ble_gap.h **** extern "C" {
  33:Generated_Source\PSoC6\pdl\middleware/ble/cy_ble_gap.h **** #endif /* __cplusplus */
  34:Generated_Source\PSoC6\pdl\middleware/ble/cy_ble_gap.h **** 
  35:Generated_Source\PSoC6\pdl\middleware/ble/cy_ble_gap.h **** /***************************************
  36:Generated_Source\PSoC6\pdl\middleware/ble/cy_ble_gap.h **** * Conditional Compilation Parameters
  37:Generated_Source\PSoC6\pdl\middleware/ble/cy_ble_gap.h **** ***************************************/
  38:Generated_Source\PSoC6\pdl\middleware/ble/cy_ble_gap.h **** /**
  39:Generated_Source\PSoC6\pdl\middleware/ble/cy_ble_gap.h ****  * The BLE operation mode.
  40:Generated_Source\PSoC6\pdl\middleware/ble/cy_ble_gap.h ****  */
  41:Generated_Source\PSoC6\pdl\middleware/ble/cy_ble_gap.h **** #define CY_BLE_MODE                          (CY_BLE_CONFIG_MODE)
  42:Generated_Source\PSoC6\pdl\middleware/ble/cy_ble_gap.h **** 
  43:Generated_Source\PSoC6\pdl\middleware/ble/cy_ble_gap.h **** /** 
  44:Generated_Source\PSoC6\pdl\middleware/ble/cy_ble_gap.h ****  * Maximum number of BLE connections
  45:Generated_Source\PSoC6\pdl\middleware/ble/cy_ble_gap.h ****  * This parameter displays how many BLE connections (both Central and 
  46:Generated_Source\PSoC6\pdl\middleware/ble/cy_ble_gap.h ****  * Peripheral) are allowed. Valid range is from 1 to 4.
  47:Generated_Source\PSoC6\pdl\middleware/ble/cy_ble_gap.h ****  */
  48:Generated_Source\PSoC6\pdl\middleware/ble/cy_ble_gap.h **** #define CY_BLE_CONN_COUNT                    (CY_BLE_CONFIG_CONN_COUNT)
  49:Generated_Source\PSoC6\pdl\middleware/ble/cy_ble_gap.h ****  
  50:Generated_Source\PSoC6\pdl\middleware/ble/cy_ble_gap.h **** /**
  51:Generated_Source\PSoC6\pdl\middleware/ble/cy_ble_gap.h ****  * The GAP Role 
  52:Generated_Source\PSoC6\pdl\middleware/ble/cy_ble_gap.h ****  * The following defined mask can be used:
  53:Generated_Source\PSoC6\pdl\middleware/ble/cy_ble_gap.h ****  * CY_BLE_GAP_PERIPHERAL  (0x01u) - device operates as peripheral.
  54:Generated_Source\PSoC6\pdl\middleware/ble/cy_ble_gap.h ****  * CY_BLE_GAP_CENTRAL     (0x02u) - device operates as central. 
  55:Generated_Source\PSoC6\pdl\middleware/ble/cy_ble_gap.h ****  * CY_BLE_GAP_BROADCASTER (0x04u) - device operates as broadcaster.
  56:Generated_Source\PSoC6\pdl\middleware/ble/cy_ble_gap.h ****  * CY_BLE_GAP_OBSERVER    (0x08u) - device operates as observer.
  57:Generated_Source\PSoC6\pdl\middleware/ble/cy_ble_gap.h ****  * CY_BLE_GAP_HCI         (0x00u) - used when BLE operates in HCI mode.
  58:Generated_Source\PSoC6\pdl\middleware/ble/cy_ble_gap.h ****  */ 
  59:Generated_Source\PSoC6\pdl\middleware/ble/cy_ble_gap.h **** #define CY_BLE_GAP_ROLE                       (CY_BLE_CONFIG_GAP_ROLE)
  60:Generated_Source\PSoC6\pdl\middleware/ble/cy_ble_gap.h **** 
  61:Generated_Source\PSoC6\pdl\middleware/ble/cy_ble_gap.h **** /** The number of GAP Peripheral configurations structures */
  62:Generated_Source\PSoC6\pdl\middleware/ble/cy_ble_gap.h **** #define CY_BLE_GAP_PERIPHERAL_COUNT           (CY_BLE_CONFIG_GAP_PERIPHERAL_COUNT)
  63:Generated_Source\PSoC6\pdl\middleware/ble/cy_ble_gap.h **** 
  64:Generated_Source\PSoC6\pdl\middleware/ble/cy_ble_gap.h **** /** The number of GAP Broadcaster configurations structures */
  65:Generated_Source\PSoC6\pdl\middleware/ble/cy_ble_gap.h **** #define CY_BLE_GAP_BROADCASTER_COUNT          (CY_BLE_CONFIG_GAP_BROADCASTER_COUNT)
  66:Generated_Source\PSoC6\pdl\middleware/ble/cy_ble_gap.h **** 
  67:Generated_Source\PSoC6\pdl\middleware/ble/cy_ble_gap.h **** /** The number of GAP Central configurations structures */
  68:Generated_Source\PSoC6\pdl\middleware/ble/cy_ble_gap.h **** #define CY_BLE_GAP_CENTRAL_COUNT              (CY_BLE_CONFIG_GAP_CENTRAL_COUNT)
  69:Generated_Source\PSoC6\pdl\middleware/ble/cy_ble_gap.h **** 
  70:Generated_Source\PSoC6\pdl\middleware/ble/cy_ble_gap.h **** /** The number of GAP Observer configurations structures */
  71:Generated_Source\PSoC6\pdl\middleware/ble/cy_ble_gap.h **** #define CY_BLE_GAP_OBSERVER_COUNT             (CY_BLE_CONFIG_GAP_OBSERVER_COUNT)
  72:Generated_Source\PSoC6\pdl\middleware/ble/cy_ble_gap.h **** 
  73:Generated_Source\PSoC6\pdl\middleware/ble/cy_ble_gap.h **** /** The number of Security configurations structures */
  74:Generated_Source\PSoC6\pdl\middleware/ble/cy_ble_gap.h **** #define CY_BLE_AUTH_INFO_COUNT                (CY_BLE_CONFIG_AUTH_INFO_COUNT)
  75:Generated_Source\PSoC6\pdl\middleware/ble/cy_ble_gap.h **** 
  76:Generated_Source\PSoC6\pdl\middleware/ble/cy_ble_gap.h **** /** The Bonding Requirement structures */
  77:Generated_Source\PSoC6\pdl\middleware/ble/cy_ble_gap.h **** #define CY_BLE_BONDING_REQUIREMENT            (CY_BLE_CONFIG_BONDING_REQUIREMENT)
ARM GAS  C:\Users\43479\AppData\Local\Temp\ccqwRonb.s 			page 48


  78:Generated_Source\PSoC6\pdl\middleware/ble/cy_ble_gap.h **** 
  79:Generated_Source\PSoC6\pdl\middleware/ble/cy_ble_gap.h **** /** The GAP Role defines */
  80:Generated_Source\PSoC6\pdl\middleware/ble/cy_ble_gap.h **** #define CY_BLE_GAP_ROLE_PERIPHERAL            (0u != (CY_BLE_GAP_ROLE & CY_BLE_GAP_PERIPHERAL))
  81:Generated_Source\PSoC6\pdl\middleware/ble/cy_ble_gap.h **** #define CY_BLE_GAP_ROLE_CENTRAL               (0u != (CY_BLE_GAP_ROLE & CY_BLE_GAP_CENTRAL))
  82:Generated_Source\PSoC6\pdl\middleware/ble/cy_ble_gap.h **** #define CY_BLE_GAP_ROLE_OBSERVER              (0u != (CY_BLE_GAP_ROLE & CY_BLE_GAP_OBSERVER))
  83:Generated_Source\PSoC6\pdl\middleware/ble/cy_ble_gap.h **** #define CY_BLE_GAP_ROLE_BROADCASTER           (0u != (CY_BLE_GAP_ROLE & CY_BLE_GAP_BROADCASTER))
  84:Generated_Source\PSoC6\pdl\middleware/ble/cy_ble_gap.h **** 
  85:Generated_Source\PSoC6\pdl\middleware/ble/cy_ble_gap.h **** #define CY_BLE_GAPP_CONF_COUNT                (CY_BLE_GAP_PERIPHERAL_COUNT + CY_BLE_GAP_BROADCASTER
  86:Generated_Source\PSoC6\pdl\middleware/ble/cy_ble_gap.h **** #define CY_BLE_GAPC_CONF_COUNT                (CY_BLE_GAP_CENTRAL_COUNT + CY_BLE_GAP_OBSERVER_COUNT
  87:Generated_Source\PSoC6\pdl\middleware/ble/cy_ble_gap.h **** 
  88:Generated_Source\PSoC6\pdl\middleware/ble/cy_ble_gap.h **** /***************************************
  89:Generated_Source\PSoC6\pdl\middleware/ble/cy_ble_gap.h **** * Type Definitions
  90:Generated_Source\PSoC6\pdl\middleware/ble/cy_ble_gap.h **** ***************************************/
  91:Generated_Source\PSoC6\pdl\middleware/ble/cy_ble_gap.h **** 
  92:Generated_Source\PSoC6\pdl\middleware/ble/cy_ble_gap.h **** #if (CY_BLE_MODE_PROFILE)
  93:Generated_Source\PSoC6\pdl\middleware/ble/cy_ble_gap.h **** 
  94:Generated_Source\PSoC6\pdl\middleware/ble/cy_ble_gap.h **** /***************************************
  95:Generated_Source\PSoC6\pdl\middleware/ble/cy_ble_gap.h **** * Enumerated Types and Structures
  96:Generated_Source\PSoC6\pdl\middleware/ble/cy_ble_gap.h **** ***************************************/
  97:Generated_Source\PSoC6\pdl\middleware/ble/cy_ble_gap.h **** 
  98:Generated_Source\PSoC6\pdl\middleware/ble/cy_ble_gap.h **** /**
  99:Generated_Source\PSoC6\pdl\middleware/ble/cy_ble_gap.h ****  * \addtogroup group_ble_common_api_gap_definitions
 100:Generated_Source\PSoC6\pdl\middleware/ble/cy_ble_gap.h ****  * @{
 101:Generated_Source\PSoC6\pdl\middleware/ble/cy_ble_gap.h ****  */
 102:Generated_Source\PSoC6\pdl\middleware/ble/cy_ble_gap.h **** 
 103:Generated_Source\PSoC6\pdl\middleware/ble/cy_ble_gap.h **** /** BLE state machine type */
 104:Generated_Source\PSoC6\pdl\middleware/ble/cy_ble_gap.h **** typedef enum
 105:Generated_Source\PSoC6\pdl\middleware/ble/cy_ble_gap.h **** {
 106:Generated_Source\PSoC6\pdl\middleware/ble/cy_ble_gap.h ****     CY_BLE_STATE_STOPPED,                             /**< BLE is turned off */
 107:Generated_Source\PSoC6\pdl\middleware/ble/cy_ble_gap.h ****     CY_BLE_STATE_INITIALIZING,                        /**< Initializing state */
 108:Generated_Source\PSoC6\pdl\middleware/ble/cy_ble_gap.h ****     CY_BLE_STATE_ON,                                  /**< BLE is turned on */
 109:Generated_Source\PSoC6\pdl\middleware/ble/cy_ble_gap.h **** #if (CY_BLE_GAP_ROLE_CENTRAL)
 110:Generated_Source\PSoC6\pdl\middleware/ble/cy_ble_gap.h ****     CY_BLE_STATE_CONNECTING,                          /**< Connecting */
 111:Generated_Source\PSoC6\pdl\middleware/ble/cy_ble_gap.h **** #endif /* CY_BLE_GAP_ROLE_CENTRAL */
 112:Generated_Source\PSoC6\pdl\middleware/ble/cy_ble_gap.h **** } cy_en_ble_state_t;
 113:Generated_Source\PSoC6\pdl\middleware/ble/cy_ble_gap.h **** 
 114:Generated_Source\PSoC6\pdl\middleware/ble/cy_ble_gap.h **** 
 115:Generated_Source\PSoC6\pdl\middleware/ble/cy_ble_gap.h **** /** Scanning state machine type */
 116:Generated_Source\PSoC6\pdl\middleware/ble/cy_ble_gap.h **** typedef enum
 117:Generated_Source\PSoC6\pdl\middleware/ble/cy_ble_gap.h **** {
 118:Generated_Source\PSoC6\pdl\middleware/ble/cy_ble_gap.h ****     CY_BLE_SCAN_STATE_STOPPED,                        /**< Scanning is stopped */
 119:Generated_Source\PSoC6\pdl\middleware/ble/cy_ble_gap.h ****     CY_BLE_SCAN_STATE_SCAN_INITIATED,                 /**< Scanning is initiated */
 120:Generated_Source\PSoC6\pdl\middleware/ble/cy_ble_gap.h ****     CY_BLE_SCAN_STATE_SCANNING,                       /**< Scanning process */
 121:Generated_Source\PSoC6\pdl\middleware/ble/cy_ble_gap.h ****     CY_BLE_SCAN_STATE_STOP_INITIATED                  /**< Stop scanning is initiated */
 122:Generated_Source\PSoC6\pdl\middleware/ble/cy_ble_gap.h **** } cy_en_ble_scan_state_t;
 123:Generated_Source\PSoC6\pdl\middleware/ble/cy_ble_gap.h **** 
 124:Generated_Source\PSoC6\pdl\middleware/ble/cy_ble_gap.h **** /** Advertising state machine type */
 125:Generated_Source\PSoC6\pdl\middleware/ble/cy_ble_gap.h **** typedef enum
 126:Generated_Source\PSoC6\pdl\middleware/ble/cy_ble_gap.h **** {
 127:Generated_Source\PSoC6\pdl\middleware/ble/cy_ble_gap.h ****     CY_BLE_ADV_STATE_STOPPED,                         /**< Advertising is stopped */
 128:Generated_Source\PSoC6\pdl\middleware/ble/cy_ble_gap.h ****     CY_BLE_ADV_STATE_ADV_INITIATED,                   /**< Advertising is initiated */
 129:Generated_Source\PSoC6\pdl\middleware/ble/cy_ble_gap.h ****     CY_BLE_ADV_STATE_ADVERTISING,                     /**< Advertising process */
 130:Generated_Source\PSoC6\pdl\middleware/ble/cy_ble_gap.h ****     CY_BLE_ADV_STATE_STOP_INITIATED                   /**< Stop advertising is initiated */
 131:Generated_Source\PSoC6\pdl\middleware/ble/cy_ble_gap.h **** } cy_en_ble_adv_state_t;
 132:Generated_Source\PSoC6\pdl\middleware/ble/cy_ble_gap.h **** 
 133:Generated_Source\PSoC6\pdl\middleware/ble/cy_ble_gap.h **** /** Connection state machine type */
 134:Generated_Source\PSoC6\pdl\middleware/ble/cy_ble_gap.h **** typedef enum
ARM GAS  C:\Users\43479\AppData\Local\Temp\ccqwRonb.s 			page 49


 135:Generated_Source\PSoC6\pdl\middleware/ble/cy_ble_gap.h **** {
 136:Generated_Source\PSoC6\pdl\middleware/ble/cy_ble_gap.h ****     CY_BLE_CONN_STATE_DISCONNECTED,                   /**< Essentially idle state */
 137:Generated_Source\PSoC6\pdl\middleware/ble/cy_ble_gap.h ****     CY_BLE_CONN_STATE_CLIENT_DISCONNECTED_DISCOVERED, /**< Server is disconnected but discovered */
 138:Generated_Source\PSoC6\pdl\middleware/ble/cy_ble_gap.h ****     CY_BLE_CONN_STATE_CONNECTED,                      /**< Peer device is connected for this and fo
 139:Generated_Source\PSoC6\pdl\middleware/ble/cy_ble_gap.h ****     CY_BLE_CONN_STATE_CLIENT_SRVC_DISCOVERING,        /**< Server services are being discovered */
 140:Generated_Source\PSoC6\pdl\middleware/ble/cy_ble_gap.h ****     CY_BLE_CONN_STATE_CLIENT_INCL_DISCOVERING,        /**< Server included services are being disco
 141:Generated_Source\PSoC6\pdl\middleware/ble/cy_ble_gap.h ****     CY_BLE_CONN_STATE_CLIENT_CHAR_DISCOVERING,        /**< Server characteristics are being discove
 142:Generated_Source\PSoC6\pdl\middleware/ble/cy_ble_gap.h ****     CY_BLE_CONN_STATE_CLIENT_DESCR_DISCOVERING,       /**< Server char. descriptors are being disco
 143:Generated_Source\PSoC6\pdl\middleware/ble/cy_ble_gap.h ****     CY_BLE_CONN_STATE_CLIENT_DISCOVERED               /**< Server is discovered */
 144:Generated_Source\PSoC6\pdl\middleware/ble/cy_ble_gap.h **** } cy_en_ble_conn_state_t;
 145:Generated_Source\PSoC6\pdl\middleware/ble/cy_ble_gap.h **** 
 146:Generated_Source\PSoC6\pdl\middleware/ble/cy_ble_gap.h **** /** Structure with Generic Access Profile Service (GAPS) attribute handles */
 147:Generated_Source\PSoC6\pdl\middleware/ble/cy_ble_gap.h **** typedef struct
 148:Generated_Source\PSoC6\pdl\middleware/ble/cy_ble_gap.h **** {
 149:Generated_Source\PSoC6\pdl\middleware/ble/cy_ble_gap.h ****     /** Service handle*/
 150:Generated_Source\PSoC6\pdl\middleware/ble/cy_ble_gap.h ****     cy_ble_gatt_db_attr_handle_t serviceHandle;
 151:Generated_Source\PSoC6\pdl\middleware/ble/cy_ble_gap.h **** 
 152:Generated_Source\PSoC6\pdl\middleware/ble/cy_ble_gap.h ****     /** Handle of the GAPS Device Name Characteristic */
 153:Generated_Source\PSoC6\pdl\middleware/ble/cy_ble_gap.h ****     cy_ble_gatt_db_attr_handle_t deviceNameCharHandle;
 154:Generated_Source\PSoC6\pdl\middleware/ble/cy_ble_gap.h **** 
 155:Generated_Source\PSoC6\pdl\middleware/ble/cy_ble_gap.h ****     /** Handle of the GAPS Appearance Characteristic */
 156:Generated_Source\PSoC6\pdl\middleware/ble/cy_ble_gap.h ****     cy_ble_gatt_db_attr_handle_t appearanceCharHandle;
 157:Generated_Source\PSoC6\pdl\middleware/ble/cy_ble_gap.h **** 
 158:Generated_Source\PSoC6\pdl\middleware/ble/cy_ble_gap.h ****     /** Handle of the GAPS Peripheral Preferred Connection Parameters Characteristic */
 159:Generated_Source\PSoC6\pdl\middleware/ble/cy_ble_gap.h ****     cy_ble_gatt_db_attr_handle_t prefConnParamCharHandle;
 160:Generated_Source\PSoC6\pdl\middleware/ble/cy_ble_gap.h **** 
 161:Generated_Source\PSoC6\pdl\middleware/ble/cy_ble_gap.h ****     /** Handle of the GAPS Central Address Resolution characteristic */
 162:Generated_Source\PSoC6\pdl\middleware/ble/cy_ble_gap.h ****     cy_ble_gatt_db_attr_handle_t centralAddrResolutionCharHandle;
 163:Generated_Source\PSoC6\pdl\middleware/ble/cy_ble_gap.h **** 
 164:Generated_Source\PSoC6\pdl\middleware/ble/cy_ble_gap.h ****     /** Handle of the GAPS Resolvable Private Address Only characteristic */
 165:Generated_Source\PSoC6\pdl\middleware/ble/cy_ble_gap.h ****     cy_ble_gatt_db_attr_handle_t resolvablePrivateAddressOnly;
 166:Generated_Source\PSoC6\pdl\middleware/ble/cy_ble_gap.h **** } cy_stc_ble_gaps_t;
 167:Generated_Source\PSoC6\pdl\middleware/ble/cy_ble_gap.h **** 
 168:Generated_Source\PSoC6\pdl\middleware/ble/cy_ble_gap.h **** /** GAP Service characteristics server's GATT DB handles structure type */
 169:Generated_Source\PSoC6\pdl\middleware/ble/cy_ble_gap.h **** typedef struct
 170:Generated_Source\PSoC6\pdl\middleware/ble/cy_ble_gap.h **** {
 171:Generated_Source\PSoC6\pdl\middleware/ble/cy_ble_gap.h ****     /** Handle of the GAPS Device Name Characteristic */
 172:Generated_Source\PSoC6\pdl\middleware/ble/cy_ble_gap.h ****     cy_ble_gatt_db_attr_handle_t deviceNameCharHandle;
 173:Generated_Source\PSoC6\pdl\middleware/ble/cy_ble_gap.h **** 
 174:Generated_Source\PSoC6\pdl\middleware/ble/cy_ble_gap.h ****     /** Handle of the GAPS Appearance Characteristic */
 175:Generated_Source\PSoC6\pdl\middleware/ble/cy_ble_gap.h ****     cy_ble_gatt_db_attr_handle_t appearanceCharHandle;
 176:Generated_Source\PSoC6\pdl\middleware/ble/cy_ble_gap.h **** 
 177:Generated_Source\PSoC6\pdl\middleware/ble/cy_ble_gap.h ****     /** Handle of the GAPS Peripheral Privacy Flag Parameters Characteristic */
 178:Generated_Source\PSoC6\pdl\middleware/ble/cy_ble_gap.h ****     cy_ble_gatt_db_attr_handle_t periphPrivacyCharHandle;
 179:Generated_Source\PSoC6\pdl\middleware/ble/cy_ble_gap.h **** 
 180:Generated_Source\PSoC6\pdl\middleware/ble/cy_ble_gap.h ****     /** Handle of the GAPS Reconnection Address Characteristic */
 181:Generated_Source\PSoC6\pdl\middleware/ble/cy_ble_gap.h ****     cy_ble_gatt_db_attr_handle_t reconnAddrCharHandle;
 182:Generated_Source\PSoC6\pdl\middleware/ble/cy_ble_gap.h **** 
 183:Generated_Source\PSoC6\pdl\middleware/ble/cy_ble_gap.h ****     /** Handle of the GAPS Peripheral Preferred Connection Parameters Characteristic */
 184:Generated_Source\PSoC6\pdl\middleware/ble/cy_ble_gap.h ****     cy_ble_gatt_db_attr_handle_t prefConnParamCharHandle;
 185:Generated_Source\PSoC6\pdl\middleware/ble/cy_ble_gap.h **** 
 186:Generated_Source\PSoC6\pdl\middleware/ble/cy_ble_gap.h ****     /** Handle of the GAPS Central Address Resolution characteristic */
 187:Generated_Source\PSoC6\pdl\middleware/ble/cy_ble_gap.h ****     cy_ble_gatt_db_attr_handle_t centralAddrResolutionCharHandle;
 188:Generated_Source\PSoC6\pdl\middleware/ble/cy_ble_gap.h **** 
 189:Generated_Source\PSoC6\pdl\middleware/ble/cy_ble_gap.h ****     /** Handle of the GAPS Resolvable Private Address Only characteristic */
 190:Generated_Source\PSoC6\pdl\middleware/ble/cy_ble_gap.h ****     cy_ble_gatt_db_attr_handle_t resolvablePrivateAddressOnly;
 191:Generated_Source\PSoC6\pdl\middleware/ble/cy_ble_gap.h **** }cy_stc_ble_gapc_t;
ARM GAS  C:\Users\43479\AppData\Local\Temp\ccqwRonb.s 			page 50


 192:Generated_Source\PSoC6\pdl\middleware/ble/cy_ble_gap.h **** 
 193:Generated_Source\PSoC6\pdl\middleware/ble/cy_ble_gap.h **** /* Stack mode defines */
 194:Generated_Source\PSoC6\pdl\middleware/ble/cy_ble_gap.h **** 
 195:Generated_Source\PSoC6\pdl\middleware/ble/cy_ble_gap.h **** /** Advertisement SIG assigned numbers */
 196:Generated_Source\PSoC6\pdl\middleware/ble/cy_ble_gap.h **** typedef enum
 197:Generated_Source\PSoC6\pdl\middleware/ble/cy_ble_gap.h **** {
 198:Generated_Source\PSoC6\pdl\middleware/ble/cy_ble_gap.h ****     /** Flags */
 199:Generated_Source\PSoC6\pdl\middleware/ble/cy_ble_gap.h ****     CY_BLE_GAP_ADV_FLAGS = 0x01u,
 200:Generated_Source\PSoC6\pdl\middleware/ble/cy_ble_gap.h **** 
 201:Generated_Source\PSoC6\pdl\middleware/ble/cy_ble_gap.h ****     /** Incomplete List of 16-bit Service Class UUIDs */
 202:Generated_Source\PSoC6\pdl\middleware/ble/cy_ble_gap.h ****     CY_BLE_GAP_ADV_INCOMPL_16UUID,
 203:Generated_Source\PSoC6\pdl\middleware/ble/cy_ble_gap.h **** 
 204:Generated_Source\PSoC6\pdl\middleware/ble/cy_ble_gap.h ****     /** Complete List of 16-bit Service Class UUIDs */
 205:Generated_Source\PSoC6\pdl\middleware/ble/cy_ble_gap.h ****     CY_BLE_GAP_ADV_COMPL_16UUID,
 206:Generated_Source\PSoC6\pdl\middleware/ble/cy_ble_gap.h **** 
 207:Generated_Source\PSoC6\pdl\middleware/ble/cy_ble_gap.h ****     /** Incomplete List of 32-bit Service Class UUIDs */
 208:Generated_Source\PSoC6\pdl\middleware/ble/cy_ble_gap.h ****     CY_BLE_GAP_ADV_INCOMPL_32_UUID,
 209:Generated_Source\PSoC6\pdl\middleware/ble/cy_ble_gap.h **** 
 210:Generated_Source\PSoC6\pdl\middleware/ble/cy_ble_gap.h ****     /** Complete List of 32-bit Service Class UUIDs */
 211:Generated_Source\PSoC6\pdl\middleware/ble/cy_ble_gap.h ****     CY_BLE_GAP_ADV_COMPL_32_UUID,
 212:Generated_Source\PSoC6\pdl\middleware/ble/cy_ble_gap.h **** 
 213:Generated_Source\PSoC6\pdl\middleware/ble/cy_ble_gap.h ****     /** Incomplete List of 128-bit Service Class UUIDs */
 214:Generated_Source\PSoC6\pdl\middleware/ble/cy_ble_gap.h ****     CY_BLE_GAP_ADV_INCOMPL_128_UUID,
 215:Generated_Source\PSoC6\pdl\middleware/ble/cy_ble_gap.h **** 
 216:Generated_Source\PSoC6\pdl\middleware/ble/cy_ble_gap.h ****     /** Complete List of 128-bit Service Class UUIDs */
 217:Generated_Source\PSoC6\pdl\middleware/ble/cy_ble_gap.h ****     CY_BLE_GAP_ADV_COMPL_128_UUID,
 218:Generated_Source\PSoC6\pdl\middleware/ble/cy_ble_gap.h **** 
 219:Generated_Source\PSoC6\pdl\middleware/ble/cy_ble_gap.h ****     /** Shortened Local Name */
 220:Generated_Source\PSoC6\pdl\middleware/ble/cy_ble_gap.h ****     CY_BLE_GAP_ADV_SHORT_NAME,
 221:Generated_Source\PSoC6\pdl\middleware/ble/cy_ble_gap.h **** 
 222:Generated_Source\PSoC6\pdl\middleware/ble/cy_ble_gap.h ****     /** Complete Local Name */
 223:Generated_Source\PSoC6\pdl\middleware/ble/cy_ble_gap.h ****     CY_BLE_GAP_ADV_COMPL_NAME,
 224:Generated_Source\PSoC6\pdl\middleware/ble/cy_ble_gap.h **** 
 225:Generated_Source\PSoC6\pdl\middleware/ble/cy_ble_gap.h ****     /** Tx Power Level */
 226:Generated_Source\PSoC6\pdl\middleware/ble/cy_ble_gap.h ****     CY_BLE_GAP_ADV_TX_PWR_LVL,
 227:Generated_Source\PSoC6\pdl\middleware/ble/cy_ble_gap.h **** 
 228:Generated_Source\PSoC6\pdl\middleware/ble/cy_ble_gap.h ****     /** Class of Device */
 229:Generated_Source\PSoC6\pdl\middleware/ble/cy_ble_gap.h ****     CY_BLE_GAP_ADV_CLASS_OF_DEVICE = 0x0Du,
 230:Generated_Source\PSoC6\pdl\middleware/ble/cy_ble_gap.h **** 
 231:Generated_Source\PSoC6\pdl\middleware/ble/cy_ble_gap.h ****     /** Simple Pairing Hash C */
 232:Generated_Source\PSoC6\pdl\middleware/ble/cy_ble_gap.h ****     CY_BLE_GAP_ADV_SMPL_PAIR_HASH_C,
 233:Generated_Source\PSoC6\pdl\middleware/ble/cy_ble_gap.h **** 
 234:Generated_Source\PSoC6\pdl\middleware/ble/cy_ble_gap.h ****     /** Simple Pairing Randomizer R */
 235:Generated_Source\PSoC6\pdl\middleware/ble/cy_ble_gap.h ****     CY_BLE_GAP_ADV_SMPL_PAIR_RANDOM_R,
 236:Generated_Source\PSoC6\pdl\middleware/ble/cy_ble_gap.h **** 
 237:Generated_Source\PSoC6\pdl\middleware/ble/cy_ble_gap.h ****     /** Device ID*/
 238:Generated_Source\PSoC6\pdl\middleware/ble/cy_ble_gap.h ****     CY_BLE_GAP_ADV_DEVICE_ID,
 239:Generated_Source\PSoC6\pdl\middleware/ble/cy_ble_gap.h **** 
 240:Generated_Source\PSoC6\pdl\middleware/ble/cy_ble_gap.h ****     /** Security Manager TK Value */
 241:Generated_Source\PSoC6\pdl\middleware/ble/cy_ble_gap.h ****     CY_BLE_GAP_ADV_SCRT_MNGR_TK_VAL = 0x10u,
 242:Generated_Source\PSoC6\pdl\middleware/ble/cy_ble_gap.h **** 
 243:Generated_Source\PSoC6\pdl\middleware/ble/cy_ble_gap.h ****     /** Security Manager Out of Band Flags */
 244:Generated_Source\PSoC6\pdl\middleware/ble/cy_ble_gap.h ****     CY_BLE_GAP_ADV_SCRT_MNGR_OOB_FLAGS,
 245:Generated_Source\PSoC6\pdl\middleware/ble/cy_ble_gap.h **** 
 246:Generated_Source\PSoC6\pdl\middleware/ble/cy_ble_gap.h ****     /** Slave Connection Interval Range */
 247:Generated_Source\PSoC6\pdl\middleware/ble/cy_ble_gap.h ****     CY_BLE_GAP_ADV_SLAVE_CONN_INTRV_RANGE,
 248:Generated_Source\PSoC6\pdl\middleware/ble/cy_ble_gap.h **** 
ARM GAS  C:\Users\43479\AppData\Local\Temp\ccqwRonb.s 			page 51


 249:Generated_Source\PSoC6\pdl\middleware/ble/cy_ble_gap.h ****     /** List of 16-bit Service Solicitation UUIDs */
 250:Generated_Source\PSoC6\pdl\middleware/ble/cy_ble_gap.h ****     CY_BLE_GAP_ADV_SOLICIT_16UUID = 0x14u,
 251:Generated_Source\PSoC6\pdl\middleware/ble/cy_ble_gap.h **** 
 252:Generated_Source\PSoC6\pdl\middleware/ble/cy_ble_gap.h ****     /** List of 128-bit Service Solicitation UUIDs */
 253:Generated_Source\PSoC6\pdl\middleware/ble/cy_ble_gap.h ****     CY_BLE_GAP_ADV_SOLICIT_128UUID,
 254:Generated_Source\PSoC6\pdl\middleware/ble/cy_ble_gap.h **** 
 255:Generated_Source\PSoC6\pdl\middleware/ble/cy_ble_gap.h ****     /** Service Data - 16-bit UUID */
 256:Generated_Source\PSoC6\pdl\middleware/ble/cy_ble_gap.h ****     CY_BLE_GAP_ADV_SRVC_DATA_16UUID,
 257:Generated_Source\PSoC6\pdl\middleware/ble/cy_ble_gap.h **** 
 258:Generated_Source\PSoC6\pdl\middleware/ble/cy_ble_gap.h ****     /** Public Target Address */
 259:Generated_Source\PSoC6\pdl\middleware/ble/cy_ble_gap.h ****     CY_BLE_GAP_ADV_PUBLIC_TARGET_ADDR,
 260:Generated_Source\PSoC6\pdl\middleware/ble/cy_ble_gap.h **** 
 261:Generated_Source\PSoC6\pdl\middleware/ble/cy_ble_gap.h ****     /** Random Target Address */
 262:Generated_Source\PSoC6\pdl\middleware/ble/cy_ble_gap.h ****     CY_BLE_GAP_ADV_RANDOM_TARGET_ADDR,
 263:Generated_Source\PSoC6\pdl\middleware/ble/cy_ble_gap.h **** 
 264:Generated_Source\PSoC6\pdl\middleware/ble/cy_ble_gap.h ****     /** Appearance */
 265:Generated_Source\PSoC6\pdl\middleware/ble/cy_ble_gap.h ****     CY_BLE_GAP_ADV_APPEARANCE,
 266:Generated_Source\PSoC6\pdl\middleware/ble/cy_ble_gap.h **** 
 267:Generated_Source\PSoC6\pdl\middleware/ble/cy_ble_gap.h ****     /** Advertising Interval */
 268:Generated_Source\PSoC6\pdl\middleware/ble/cy_ble_gap.h ****     CY_BLE_GAP_ADV_ADVERT_INTERVAL,
 269:Generated_Source\PSoC6\pdl\middleware/ble/cy_ble_gap.h **** 
 270:Generated_Source\PSoC6\pdl\middleware/ble/cy_ble_gap.h ****     /** LE Bluetooth Device Address */
 271:Generated_Source\PSoC6\pdl\middleware/ble/cy_ble_gap.h ****     CY_BLE_GAP_ADV_LE_BT_DEVICE_ADDR,
 272:Generated_Source\PSoC6\pdl\middleware/ble/cy_ble_gap.h **** 
 273:Generated_Source\PSoC6\pdl\middleware/ble/cy_ble_gap.h ****     /** LE Role */
 274:Generated_Source\PSoC6\pdl\middleware/ble/cy_ble_gap.h ****     CY_BLE_GAP_ADV_LE_ROLE,
 275:Generated_Source\PSoC6\pdl\middleware/ble/cy_ble_gap.h **** 
 276:Generated_Source\PSoC6\pdl\middleware/ble/cy_ble_gap.h ****     /** Simple Pairing Hash C-256 */
 277:Generated_Source\PSoC6\pdl\middleware/ble/cy_ble_gap.h ****     CY_BLE_GAP_ADV_SMPL_PAIR_HASH_C256,
 278:Generated_Source\PSoC6\pdl\middleware/ble/cy_ble_gap.h **** 
 279:Generated_Source\PSoC6\pdl\middleware/ble/cy_ble_gap.h ****     /** Simple Pairing Randomizer R-256 */
 280:Generated_Source\PSoC6\pdl\middleware/ble/cy_ble_gap.h ****     CY_BLE_GAP_ADV_SMPL_PAIR_RANDOM_R256,
 281:Generated_Source\PSoC6\pdl\middleware/ble/cy_ble_gap.h **** 
 282:Generated_Source\PSoC6\pdl\middleware/ble/cy_ble_gap.h ****     /** List of 32-bit Service Solicitation UUIDs */
 283:Generated_Source\PSoC6\pdl\middleware/ble/cy_ble_gap.h ****     CY_BLE_GAP_ADV_SOLICIT_32UUID,
 284:Generated_Source\PSoC6\pdl\middleware/ble/cy_ble_gap.h **** 
 285:Generated_Source\PSoC6\pdl\middleware/ble/cy_ble_gap.h ****     /** Service Data - 32-bit UUID */
 286:Generated_Source\PSoC6\pdl\middleware/ble/cy_ble_gap.h ****     CY_BLE_GAP_ADV_SRVC_DATA_32UUID,
 287:Generated_Source\PSoC6\pdl\middleware/ble/cy_ble_gap.h **** 
 288:Generated_Source\PSoC6\pdl\middleware/ble/cy_ble_gap.h ****     /** Service Data - 128-bit UUID */
 289:Generated_Source\PSoC6\pdl\middleware/ble/cy_ble_gap.h ****     CY_BLE_GAP_ADV_SRVC_DATA_128UUID,
 290:Generated_Source\PSoC6\pdl\middleware/ble/cy_ble_gap.h **** 
 291:Generated_Source\PSoC6\pdl\middleware/ble/cy_ble_gap.h ****     /** 3D Information Data */
 292:Generated_Source\PSoC6\pdl\middleware/ble/cy_ble_gap.h ****     CY_BLE_GAP_ADV_3D_INFO_DATA = 0x3D,
 293:Generated_Source\PSoC6\pdl\middleware/ble/cy_ble_gap.h **** 
 294:Generated_Source\PSoC6\pdl\middleware/ble/cy_ble_gap.h ****     /** Manufacturer Specific Data */
 295:Generated_Source\PSoC6\pdl\middleware/ble/cy_ble_gap.h ****     CY_BLE_GAP_ADV_MANUFACTURER_SPECIFIC_DATA = 0xFF
 296:Generated_Source\PSoC6\pdl\middleware/ble/cy_ble_gap.h **** }cy_en_ble_gap_adv_assign_numbers_t;
 297:Generated_Source\PSoC6\pdl\middleware/ble/cy_ble_gap.h **** 
 298:Generated_Source\PSoC6\pdl\middleware/ble/cy_ble_gap.h **** /** GAPP advertising configuration parameters structure */
 299:Generated_Source\PSoC6\pdl\middleware/ble/cy_ble_gap.h **** typedef struct
 300:Generated_Source\PSoC6\pdl\middleware/ble/cy_ble_gap.h **** {
 301:Generated_Source\PSoC6\pdl\middleware/ble/cy_ble_gap.h ****     /** The minimum interval for fast advertising the data and establishing the LE Connection */
 302:Generated_Source\PSoC6\pdl\middleware/ble/cy_ble_gap.h ****     uint16_t fastAdvIntervalMin;
 303:Generated_Source\PSoC6\pdl\middleware/ble/cy_ble_gap.h **** 
 304:Generated_Source\PSoC6\pdl\middleware/ble/cy_ble_gap.h ****     /** The maximum interval for fast advertising the data and establishing the LE Connection */
 305:Generated_Source\PSoC6\pdl\middleware/ble/cy_ble_gap.h ****     uint16_t fastAdvIntervalMax;
ARM GAS  C:\Users\43479\AppData\Local\Temp\ccqwRonb.s 			page 52


 306:Generated_Source\PSoC6\pdl\middleware/ble/cy_ble_gap.h **** 
 307:Generated_Source\PSoC6\pdl\middleware/ble/cy_ble_gap.h ****     /** The timeout value of  fast advertising with fast advertising interval parameters */
 308:Generated_Source\PSoC6\pdl\middleware/ble/cy_ble_gap.h ****     uint16_t fastAdvTimeOut;
 309:Generated_Source\PSoC6\pdl\middleware/ble/cy_ble_gap.h **** 
 310:Generated_Source\PSoC6\pdl\middleware/ble/cy_ble_gap.h ****     /** Slow advertising enable */
 311:Generated_Source\PSoC6\pdl\middleware/ble/cy_ble_gap.h ****     uint8_t  slowAdvEnable;
 312:Generated_Source\PSoC6\pdl\middleware/ble/cy_ble_gap.h **** 
 313:Generated_Source\PSoC6\pdl\middleware/ble/cy_ble_gap.h ****     /** The minimum interval for slow advertising the data and establishing the LE Connection */
 314:Generated_Source\PSoC6\pdl\middleware/ble/cy_ble_gap.h ****     uint16_t slowAdvIntervalMin;
 315:Generated_Source\PSoC6\pdl\middleware/ble/cy_ble_gap.h **** 
 316:Generated_Source\PSoC6\pdl\middleware/ble/cy_ble_gap.h ****     /** The maximum interval for slow  advertising the data and establishing the LE Connection */
 317:Generated_Source\PSoC6\pdl\middleware/ble/cy_ble_gap.h ****     uint16_t slowAdvIntervalMax;
 318:Generated_Source\PSoC6\pdl\middleware/ble/cy_ble_gap.h **** 
 319:Generated_Source\PSoC6\pdl\middleware/ble/cy_ble_gap.h ****     /** The timeout value of slow advertising with slow advertising interval parameters */
 320:Generated_Source\PSoC6\pdl\middleware/ble/cy_ble_gap.h ****     uint16_t slowAdvTimeOut;
 321:Generated_Source\PSoC6\pdl\middleware/ble/cy_ble_gap.h **** }cy_stc_ble_gapp_adv_params_t;
 322:Generated_Source\PSoC6\pdl\middleware/ble/cy_ble_gap.h **** 
 323:Generated_Source\PSoC6\pdl\middleware/ble/cy_ble_gap.h **** /** GAPC advertising configuration parameters structure */
 324:Generated_Source\PSoC6\pdl\middleware/ble/cy_ble_gap.h **** typedef struct
 325:Generated_Source\PSoC6\pdl\middleware/ble/cy_ble_gap.h **** {
 326:Generated_Source\PSoC6\pdl\middleware/ble/cy_ble_gap.h ****     /** The scan interval when operating in Fast connection */
 327:Generated_Source\PSoC6\pdl\middleware/ble/cy_ble_gap.h ****     uint16_t fastScanInterval;
 328:Generated_Source\PSoC6\pdl\middleware/ble/cy_ble_gap.h **** 
 329:Generated_Source\PSoC6\pdl\middleware/ble/cy_ble_gap.h ****     /** Defines the scan window when operating in Fast connection */
 330:Generated_Source\PSoC6\pdl\middleware/ble/cy_ble_gap.h ****     uint16_t fastScanWindow;
 331:Generated_Source\PSoC6\pdl\middleware/ble/cy_ble_gap.h **** 
 332:Generated_Source\PSoC6\pdl\middleware/ble/cy_ble_gap.h ****     /** The timeout value of scanning with fast scan parameters */
 333:Generated_Source\PSoC6\pdl\middleware/ble/cy_ble_gap.h ****     uint16_t fastScanTimeOut;
 334:Generated_Source\PSoC6\pdl\middleware/ble/cy_ble_gap.h **** 
 335:Generated_Source\PSoC6\pdl\middleware/ble/cy_ble_gap.h ****     /** Slow scan enable/disable */
 336:Generated_Source\PSoC6\pdl\middleware/ble/cy_ble_gap.h ****     uint8_t  slowScanEnabled;
 337:Generated_Source\PSoC6\pdl\middleware/ble/cy_ble_gap.h **** 
 338:Generated_Source\PSoC6\pdl\middleware/ble/cy_ble_gap.h ****     /** The scan interval when operating in Slow connection */
 339:Generated_Source\PSoC6\pdl\middleware/ble/cy_ble_gap.h ****     uint16_t slowScanInterval;
 340:Generated_Source\PSoC6\pdl\middleware/ble/cy_ble_gap.h **** 
 341:Generated_Source\PSoC6\pdl\middleware/ble/cy_ble_gap.h ****     /** Defines the scan window when operating in Slow connection */
 342:Generated_Source\PSoC6\pdl\middleware/ble/cy_ble_gap.h ****     uint16_t slowScanWindow;
 343:Generated_Source\PSoC6\pdl\middleware/ble/cy_ble_gap.h **** 
 344:Generated_Source\PSoC6\pdl\middleware/ble/cy_ble_gap.h ****     /** The timeout value of scanning with Slow scan parameters */
 345:Generated_Source\PSoC6\pdl\middleware/ble/cy_ble_gap.h ****     uint16_t slowScanTimeOut;
 346:Generated_Source\PSoC6\pdl\middleware/ble/cy_ble_gap.h **** 
 347:Generated_Source\PSoC6\pdl\middleware/ble/cy_ble_gap.h ****     /** The minimum permissible connection time value to be used during a connection event */
 348:Generated_Source\PSoC6\pdl\middleware/ble/cy_ble_gap.h ****     uint16_t gapcConnectionIntervalMin;
 349:Generated_Source\PSoC6\pdl\middleware/ble/cy_ble_gap.h **** 
 350:Generated_Source\PSoC6\pdl\middleware/ble/cy_ble_gap.h ****     /** The maximum permissible connection time value to be used during a connection event */
 351:Generated_Source\PSoC6\pdl\middleware/ble/cy_ble_gap.h ****     uint16_t gapcConnectionIntervalMax;
 352:Generated_Source\PSoC6\pdl\middleware/ble/cy_ble_gap.h **** 
 353:Generated_Source\PSoC6\pdl\middleware/ble/cy_ble_gap.h ****     /** Defines the maximum time between two received Data Packet PDUs before
 354:Generated_Source\PSoC6\pdl\middleware/ble/cy_ble_gap.h ****      *  the connection is considered lost */
 355:Generated_Source\PSoC6\pdl\middleware/ble/cy_ble_gap.h ****     uint16_t gapcConnectionSlaveLatency;
 356:Generated_Source\PSoC6\pdl\middleware/ble/cy_ble_gap.h **** 
 357:Generated_Source\PSoC6\pdl\middleware/ble/cy_ble_gap.h ****     /** Defines the LE link supervision timeout interval */
 358:Generated_Source\PSoC6\pdl\middleware/ble/cy_ble_gap.h ****     uint16_t gapcConnectionTimeOut;
 359:Generated_Source\PSoC6\pdl\middleware/ble/cy_ble_gap.h **** }cy_stc_ble_gapc_scan_params_t;
 360:Generated_Source\PSoC6\pdl\middleware/ble/cy_ble_gap.h **** 
 361:Generated_Source\PSoC6\pdl\middleware/ble/cy_ble_gap.h **** /** Store BLE Application Data parameter into flash */
 362:Generated_Source\PSoC6\pdl\middleware/ble/cy_ble_gap.h **** typedef struct
ARM GAS  C:\Users\43479\AppData\Local\Temp\ccqwRonb.s 			page 53


 363:Generated_Source\PSoC6\pdl\middleware/ble/cy_ble_gap.h **** {
 364:Generated_Source\PSoC6\pdl\middleware/ble/cy_ble_gap.h ****     /** Source buffer */
 365:Generated_Source\PSoC6\pdl\middleware/ble/cy_ble_gap.h ****     const uint8_t *srcBuff;
 366:Generated_Source\PSoC6\pdl\middleware/ble/cy_ble_gap.h **** 
 367:Generated_Source\PSoC6\pdl\middleware/ble/cy_ble_gap.h ****     /** Destination buffer */
 368:Generated_Source\PSoC6\pdl\middleware/ble/cy_ble_gap.h ****     const uint8_t *destAddr;
 369:Generated_Source\PSoC6\pdl\middleware/ble/cy_ble_gap.h **** 
 370:Generated_Source\PSoC6\pdl\middleware/ble/cy_ble_gap.h ****     /** Source buffer length */
 371:Generated_Source\PSoC6\pdl\middleware/ble/cy_ble_gap.h ****     uint32_t      buffLen;
 372:Generated_Source\PSoC6\pdl\middleware/ble/cy_ble_gap.h ****     
 373:Generated_Source\PSoC6\pdl\middleware/ble/cy_ble_gap.h ****     /** Write mode: blocking (default) / non-blocking */
 374:Generated_Source\PSoC6\pdl\middleware/ble/cy_ble_gap.h ****     uint32_t      writeMode;
 375:Generated_Source\PSoC6\pdl\middleware/ble/cy_ble_gap.h ****     
 376:Generated_Source\PSoC6\pdl\middleware/ble/cy_ble_gap.h **** } cy_stc_ble_app_flash_param_t;
 377:Generated_Source\PSoC6\pdl\middleware/ble/cy_ble_gap.h **** 
 378:Generated_Source\PSoC6\pdl\middleware/ble/cy_ble_gap.h **** /** @} group_ble_common_api_gap_definitions */
 379:Generated_Source\PSoC6\pdl\middleware/ble/cy_ble_gap.h ****  
 380:Generated_Source\PSoC6\pdl\middleware/ble/cy_ble_gap.h **** /***************************************
 381:Generated_Source\PSoC6\pdl\middleware/ble/cy_ble_gap.h **** * API Constants
 382:Generated_Source\PSoC6\pdl\middleware/ble/cy_ble_gap.h **** ***************************************/
 383:Generated_Source\PSoC6\pdl\middleware/ble/cy_ble_gap.h **** #define CY_BLE_AD_TYPE_MORE16UUID                  (0x02u)
 384:Generated_Source\PSoC6\pdl\middleware/ble/cy_ble_gap.h **** #define CY_BLE_AD_TYPE_CMPL16UUID                  (0x03u)
 385:Generated_Source\PSoC6\pdl\middleware/ble/cy_ble_gap.h **** #define CY_BLE_AD_TYPE_MORE32UUID                  (0x04u)
 386:Generated_Source\PSoC6\pdl\middleware/ble/cy_ble_gap.h **** #define CY_BLE_AD_TYPE_CMPL32UUID                  (0x05u)
 387:Generated_Source\PSoC6\pdl\middleware/ble/cy_ble_gap.h **** #define CY_BLE_AD_TYPE_MORE128UUID                 (0x06u)
 388:Generated_Source\PSoC6\pdl\middleware/ble/cy_ble_gap.h **** #define CY_BLE_AD_TYPE_CMPL128UUID                 (0x07u)
 389:Generated_Source\PSoC6\pdl\middleware/ble/cy_ble_gap.h **** 
 390:Generated_Source\PSoC6\pdl\middleware/ble/cy_ble_gap.h **** #define CY_BLE_AD_TYPE_SERVICE_DATA                (0x16u)
 391:Generated_Source\PSoC6\pdl\middleware/ble/cy_ble_gap.h **** #define CY_BLE_AD_SERVICE_DATA_OVERHEAD            (0x03u)
 392:Generated_Source\PSoC6\pdl\middleware/ble/cy_ble_gap.h **** 
 393:Generated_Source\PSoC6\pdl\middleware/ble/cy_ble_gap.h **** #define CY_BLE_DISCOVERY_IDLE                      (0x00u)
 394:Generated_Source\PSoC6\pdl\middleware/ble/cy_ble_gap.h **** #define CY_BLE_DISCOVERY_SERVICE                   (0x01u)
 395:Generated_Source\PSoC6\pdl\middleware/ble/cy_ble_gap.h **** #define CY_BLE_DISCOVERY_CHAR                      (0x02u)
 396:Generated_Source\PSoC6\pdl\middleware/ble/cy_ble_gap.h **** #define CY_BLE_DISCOVERY_DESCR                     (0x03u)
 397:Generated_Source\PSoC6\pdl\middleware/ble/cy_ble_gap.h **** #define CY_BLE_DISCOVERY_DONE                      (0x04u)
 398:Generated_Source\PSoC6\pdl\middleware/ble/cy_ble_gap.h **** 
 399:Generated_Source\PSoC6\pdl\middleware/ble/cy_ble_gap.h **** /* Cy_BLE_NextCharDscrDiscovery parameters */
 400:Generated_Source\PSoC6\pdl\middleware/ble/cy_ble_gap.h **** #define CY_BLE_DISCOVERY_INIT                      (0x00u)
 401:Generated_Source\PSoC6\pdl\middleware/ble/cy_ble_gap.h **** #define CY_BLE_DISCOVERY_CONTINUE                  (0x01u)
 402:Generated_Source\PSoC6\pdl\middleware/ble/cy_ble_gap.h **** 
 403:Generated_Source\PSoC6\pdl\middleware/ble/cy_ble_gap.h **** #define CY_BLE_SFLASH_DIE_X_MASK                   (0x3Fu)
 404:Generated_Source\PSoC6\pdl\middleware/ble/cy_ble_gap.h **** #define CY_BLE_SFLASH_DIE_X_BITS                   (6u)
 405:Generated_Source\PSoC6\pdl\middleware/ble/cy_ble_gap.h **** #define CY_BLE_SFLASH_DIE_Y_MASK                   (0x3Fu)
 406:Generated_Source\PSoC6\pdl\middleware/ble/cy_ble_gap.h **** #define CY_BLE_SFLASH_DIE_Y_BITS                   (6u)
 407:Generated_Source\PSoC6\pdl\middleware/ble/cy_ble_gap.h **** #define CY_BLE_SFLASH_DIE_XY_BITS                  (CY_BLE_SFLASH_DIE_X_BITS + CY_BLE_SFLASH_DIE_Y_
 408:Generated_Source\PSoC6\pdl\middleware/ble/cy_ble_gap.h **** #define CY_BLE_SFLASH_DIE_WAFER_MASK               (0x1Fu)
 409:Generated_Source\PSoC6\pdl\middleware/ble/cy_ble_gap.h **** #define CY_BLE_SFLASH_DIE_WAFER_BITS               (5u)
 410:Generated_Source\PSoC6\pdl\middleware/ble/cy_ble_gap.h **** #define CY_BLE_SFLASH_DIE_XYWAFER_BITS             (CY_BLE_SFLASH_DIE_XY_BITS + CY_BLE_SFLASH_DIE_W
 411:Generated_Source\PSoC6\pdl\middleware/ble/cy_ble_gap.h **** #define CY_BLE_SFLASH_DIE_LOT_MASK                 (0x7Fu)
 412:Generated_Source\PSoC6\pdl\middleware/ble/cy_ble_gap.h **** #define CY_BLE_SFLASH_DIE_LOT_BITS                 (7u)
 413:Generated_Source\PSoC6\pdl\middleware/ble/cy_ble_gap.h **** 
 414:Generated_Source\PSoC6\pdl\middleware/ble/cy_ble_gap.h **** /* Device address stored by user in ROW4 of the SFLASH */
 415:Generated_Source\PSoC6\pdl\middleware/ble/cy_ble_gap.h **** #define CY_BLE_SFLASH_DEVICE_ADDRESS_PTR           ((cy_stc_ble_gap_bd_addr_t*)(SFLASH->BLE_DEVICE_
 416:Generated_Source\PSoC6\pdl\middleware/ble/cy_ble_gap.h **** #define CY_BLE_AD_STRUCTURE_MAX_LENGTH             (31u)
 417:Generated_Source\PSoC6\pdl\middleware/ble/cy_ble_gap.h **** 
 418:Generated_Source\PSoC6\pdl\middleware/ble/cy_ble_gap.h **** /* AD types for complete, shortened local name and device address */
 419:Generated_Source\PSoC6\pdl\middleware/ble/cy_ble_gap.h **** #define CY_BLE_SHORT_LOCAL_NAME                    (0x08u)  /**< Shortened Local Name */
ARM GAS  C:\Users\43479\AppData\Local\Temp\ccqwRonb.s 			page 54


 420:Generated_Source\PSoC6\pdl\middleware/ble/cy_ble_gap.h **** #define CY_BLE_COMPLETE_LOCAL_NAME                 (0x09u)  /**< Complete Local Name */
 421:Generated_Source\PSoC6\pdl\middleware/ble/cy_ble_gap.h **** #define CY_BLE_ADV_DEVICE_ADDR                     (0x1Bu)  /**< LE Bluetooth Device Address */
 422:Generated_Source\PSoC6\pdl\middleware/ble/cy_ble_gap.h **** 
 423:Generated_Source\PSoC6\pdl\middleware/ble/cy_ble_gap.h **** #define CY_BLE_ADVERTISING_FAST                    (0x00u)
 424:Generated_Source\PSoC6\pdl\middleware/ble/cy_ble_gap.h **** #define CY_BLE_ADVERTISING_SLOW                    (0x01u)
 425:Generated_Source\PSoC6\pdl\middleware/ble/cy_ble_gap.h **** #define CY_BLE_ADVERTISING_CUSTOM                  (0x02u)
 426:Generated_Source\PSoC6\pdl\middleware/ble/cy_ble_gap.h **** 
 427:Generated_Source\PSoC6\pdl\middleware/ble/cy_ble_gap.h **** #define CY_BLE_SCANNING_FAST                       (0x00u)
 428:Generated_Source\PSoC6\pdl\middleware/ble/cy_ble_gap.h **** #define CY_BLE_SCANNING_SLOW                       (0x01u)
 429:Generated_Source\PSoC6\pdl\middleware/ble/cy_ble_gap.h **** #define CY_BLE_SCANNING_CUSTOM                     (0x02u)
 430:Generated_Source\PSoC6\pdl\middleware/ble/cy_ble_gap.h **** 
 431:Generated_Source\PSoC6\pdl\middleware/ble/cy_ble_gap.h **** #define CY_BLE_PENDING_STACK_FLASH_WRITE_BIT       (0x01u)
 432:Generated_Source\PSoC6\pdl\middleware/ble/cy_ble_gap.h **** #define CY_BLE_PENDING_CCCD_FLASH_WRITE_BIT        (0x02u)
 433:Generated_Source\PSoC6\pdl\middleware/ble/cy_ble_gap.h **** #define CY_BLE_PENDING_CCCD_FLASH_CLEAR_BIT        (0x04u)
 434:Generated_Source\PSoC6\pdl\middleware/ble/cy_ble_gap.h **** #define CY_BLE_PENDING_CCCD_FLASH_CLEAR_ALL_BIT    (0x08u)
 435:Generated_Source\PSoC6\pdl\middleware/ble/cy_ble_gap.h **** #define CY_BLE_PENDING_CCCD_FLASH_CLEAR_MASK \
 436:Generated_Source\PSoC6\pdl\middleware/ble/cy_ble_gap.h ****     (CY_BLE_PENDING_CCCD_FLASH_CLEAR_BIT | CY_BLE_PENDING_CCCD_FLASH_CLEAR_ALL_BIT)
 437:Generated_Source\PSoC6\pdl\middleware/ble/cy_ble_gap.h ****   
 438:Generated_Source\PSoC6\pdl\middleware/ble/cy_ble_gap.h **** /**
 439:Generated_Source\PSoC6\pdl\middleware/ble/cy_ble_gap.h ****  * \addtogroup group_ble_common_api_macros
 440:Generated_Source\PSoC6\pdl\middleware/ble/cy_ble_gap.h ****  * @{
 441:Generated_Source\PSoC6\pdl\middleware/ble/cy_ble_gap.h ****  */
 442:Generated_Source\PSoC6\pdl\middleware/ble/cy_ble_gap.h ****  
 443:Generated_Source\PSoC6\pdl\middleware/ble/cy_ble_gap.h **** /* GAP Advertisement Flags */
 444:Generated_Source\PSoC6\pdl\middleware/ble/cy_ble_gap.h **** #define CY_BLE_GAP_ADV_FLAG_LE_LIMITED_DISC_MODE        (0x01u)     /**< LE Limited Discoverable Mo
 445:Generated_Source\PSoC6\pdl\middleware/ble/cy_ble_gap.h **** #define CY_BLE_GAP_ADV_FLAG_LE_GENERAL_DISC_MODE        (0x02u)     /**< LE General Discoverable Mo
 446:Generated_Source\PSoC6\pdl\middleware/ble/cy_ble_gap.h **** #define CY_BLE_GAP_ADV_FLAG_BR_EDR_NOT_SUPPORTED        (0x04u)     /**< BR/EDR not supported. */
 447:Generated_Source\PSoC6\pdl\middleware/ble/cy_ble_gap.h **** #define CY_BLE_GAP_ADV_FLAG_LE_BR_EDR_CONTROLLER        (0x08u)     /**< Simultaneous LE and BR/EDR
 448:Generated_Source\PSoC6\pdl\middleware/ble/cy_ble_gap.h **** #define CY_BLE_GAP_ADV_FLAG_LE_BR_EDR_HOST              (0x10u)     /**< Simultaneous LE and BR/EDR
 449:Generated_Source\PSoC6\pdl\middleware/ble/cy_ble_gap.h **** #define CY_BLE_GAP_ADV_FLAGS_PACKET_LENGTH              (0x02u)     /**< Length of flags in an adve
