ARM GAS  C:\Users\43479\AppData\Local\Temp\ccnK1GAg.s 			page 1


   1              		.syntax unified
   2              		.cpu cortex-m0plus
   3              		.fpu softvfp
   4              		.eabi_attribute 20, 1
   5              		.eabi_attribute 21, 1
   6              		.eabi_attribute 23, 3
   7              		.eabi_attribute 24, 1
   8              		.eabi_attribute 25, 1
   9              		.eabi_attribute 26, 1
  10              		.eabi_attribute 30, 1
  11              		.eabi_attribute 34, 0
  12              		.eabi_attribute 18, 4
  13              		.thumb
  14              		.syntax unified
  15              		.file	"cyfitter_amux.c"
  16              		.text
  17              	.Ltext0:
  18              		.cfi_sections	.debug_frame
  19              		.section	.text.AMux_2_Set,"ax",%progbits
  20              		.align	2
  21              		.global	AMux_2_Set
  22              		.code	16
  23              		.thumb_func
  24              		.type	AMux_2_Set, %function
  25              	AMux_2_Set:
  26              	.LFB39:
  27              		.file 1 "Generated_Source\\PSoC6\\cyfitter_amux.c"
   1:Generated_Source\PSoC6/cyfitter_amux.c **** /*******************************************************************************
   2:Generated_Source\PSoC6/cyfitter_amux.c **** * File Name: cyfitter_amux.c
   3:Generated_Source\PSoC6/cyfitter_amux.c **** * 
   4:Generated_Source\PSoC6/cyfitter_amux.c **** * PSoC Creator  4.4
   5:Generated_Source\PSoC6/cyfitter_amux.c **** *
   6:Generated_Source\PSoC6/cyfitter_amux.c **** * Description:
   7:Generated_Source\PSoC6/cyfitter_amux.c **** * APIs for analog mux channel switching
   8:Generated_Source\PSoC6/cyfitter_amux.c **** * This file is automatically generated by PSoC Creator.
   9:Generated_Source\PSoC6/cyfitter_amux.c **** *
  10:Generated_Source\PSoC6/cyfitter_amux.c **** ********************************************************************************
  11:Generated_Source\PSoC6/cyfitter_amux.c **** * Copyright (c) 2007-2020 Cypress Semiconductor.  All rights reserved.
  12:Generated_Source\PSoC6/cyfitter_amux.c **** * You may use this file only in accordance with the license, terms, conditions, 
  13:Generated_Source\PSoC6/cyfitter_amux.c **** * disclaimers, and limitations in the end user license agreement accompanying 
  14:Generated_Source\PSoC6/cyfitter_amux.c **** * the software package with which this file was provided.
  15:Generated_Source\PSoC6/cyfitter_amux.c **** ********************************************************************************/
  16:Generated_Source\PSoC6/cyfitter_amux.c **** 
  17:Generated_Source\PSoC6/cyfitter_amux.c **** #include "cyfitter_cfg.h"
  18:Generated_Source\PSoC6/cyfitter_amux.c **** #include "cydevice_trm.h"
  19:Generated_Source\PSoC6/cyfitter_amux.c **** #include <string.h>
  20:Generated_Source\PSoC6/cyfitter_amux.c **** 
  21:Generated_Source\PSoC6/cyfitter_amux.c **** #if defined(__GNUC__) || defined(__ARMCC_VERSION)
  22:Generated_Source\PSoC6/cyfitter_amux.c ****     #define CYPACKED 
  23:Generated_Source\PSoC6/cyfitter_amux.c ****     #define CYPACKED_ATTR __attribute__ ((packed))
  24:Generated_Source\PSoC6/cyfitter_amux.c ****     #define CYALIGNED __attribute__ ((aligned))
  25:Generated_Source\PSoC6/cyfitter_amux.c ****     #define CY_CFG_UNUSED __attribute__ ((unused))
  26:Generated_Source\PSoC6/cyfitter_amux.c ****     #ifndef CY_CFG_SECTION
  27:Generated_Source\PSoC6/cyfitter_amux.c ****         #define CY_CFG_SECTION __attribute__ ((section(".psocinit")))
  28:Generated_Source\PSoC6/cyfitter_amux.c ****     #endif
  29:Generated_Source\PSoC6/cyfitter_amux.c ****     
  30:Generated_Source\PSoC6/cyfitter_amux.c ****     #if defined(__ARMCC_VERSION)
ARM GAS  C:\Users\43479\AppData\Local\Temp\ccnK1GAg.s 			page 2


  31:Generated_Source\PSoC6/cyfitter_amux.c ****         #define CY_CFG_MEMORY_BARRIER() __memory_changed()
  32:Generated_Source\PSoC6/cyfitter_amux.c ****     #else
  33:Generated_Source\PSoC6/cyfitter_amux.c ****         #define CY_CFG_MEMORY_BARRIER() __sync_synchronize()
  34:Generated_Source\PSoC6/cyfitter_amux.c ****     #endif
  35:Generated_Source\PSoC6/cyfitter_amux.c ****     
  36:Generated_Source\PSoC6/cyfitter_amux.c **** #elif defined(__ICCARM__)
  37:Generated_Source\PSoC6/cyfitter_amux.c ****     #include <intrinsics.h>
  38:Generated_Source\PSoC6/cyfitter_amux.c **** 
  39:Generated_Source\PSoC6/cyfitter_amux.c ****     #define CYPACKED __packed
  40:Generated_Source\PSoC6/cyfitter_amux.c ****     #define CYPACKED_ATTR 
  41:Generated_Source\PSoC6/cyfitter_amux.c ****     #define CYALIGNED _Pragma("data_alignment=4")
  42:Generated_Source\PSoC6/cyfitter_amux.c ****     #define CY_CFG_UNUSED _Pragma("diag_suppress=Pe177")
  43:Generated_Source\PSoC6/cyfitter_amux.c ****     #define CY_CFG_SECTION _Pragma("location=\".psocinit\"")
  44:Generated_Source\PSoC6/cyfitter_amux.c ****     
  45:Generated_Source\PSoC6/cyfitter_amux.c ****     #define CY_CFG_MEMORY_BARRIER() __DMB()
  46:Generated_Source\PSoC6/cyfitter_amux.c ****     
  47:Generated_Source\PSoC6/cyfitter_amux.c **** #else
  48:Generated_Source\PSoC6/cyfitter_amux.c ****     #error Unsupported toolchain
  49:Generated_Source\PSoC6/cyfitter_amux.c **** #endif
  50:Generated_Source\PSoC6/cyfitter_amux.c **** 
  51:Generated_Source\PSoC6/cyfitter_amux.c **** #ifndef CYCODE
  52:Generated_Source\PSoC6/cyfitter_amux.c ****     #define CYCODE
  53:Generated_Source\PSoC6/cyfitter_amux.c **** #endif
  54:Generated_Source\PSoC6/cyfitter_amux.c **** #ifndef CYDATA
  55:Generated_Source\PSoC6/cyfitter_amux.c ****     #define CYDATA
  56:Generated_Source\PSoC6/cyfitter_amux.c **** #endif
  57:Generated_Source\PSoC6/cyfitter_amux.c **** #ifndef CYFAR
  58:Generated_Source\PSoC6/cyfitter_amux.c ****     #define CYFAR
  59:Generated_Source\PSoC6/cyfitter_amux.c **** #endif
  60:Generated_Source\PSoC6/cyfitter_amux.c **** #ifndef CYXDATA
  61:Generated_Source\PSoC6/cyfitter_amux.c ****     #define CYXDATA
  62:Generated_Source\PSoC6/cyfitter_amux.c **** #endif
  63:Generated_Source\PSoC6/cyfitter_amux.c **** 
  64:Generated_Source\PSoC6/cyfitter_amux.c **** 
  65:Generated_Source\PSoC6/cyfitter_amux.c **** CY_CFG_UNUSED
  66:Generated_Source\PSoC6/cyfitter_amux.c **** static void CYMEMZERO(void *s, size_t n);
  67:Generated_Source\PSoC6/cyfitter_amux.c **** CY_CFG_UNUSED
  68:Generated_Source\PSoC6/cyfitter_amux.c **** static void CYMEMZERO(void *s, size_t n)
  69:Generated_Source\PSoC6/cyfitter_amux.c **** {
  70:Generated_Source\PSoC6/cyfitter_amux.c **** 	(void)memset(s, 0, n);
  71:Generated_Source\PSoC6/cyfitter_amux.c **** }
  72:Generated_Source\PSoC6/cyfitter_amux.c **** CY_CFG_UNUSED
  73:Generated_Source\PSoC6/cyfitter_amux.c **** static void CYCONFIGCPY(void *dest, const void *src, size_t n);
  74:Generated_Source\PSoC6/cyfitter_amux.c **** CY_CFG_UNUSED
  75:Generated_Source\PSoC6/cyfitter_amux.c **** static void CYCONFIGCPY(void *dest, const void *src, size_t n)
  76:Generated_Source\PSoC6/cyfitter_amux.c **** {
  77:Generated_Source\PSoC6/cyfitter_amux.c **** 	(void)memcpy(dest, src, n);
  78:Generated_Source\PSoC6/cyfitter_amux.c **** }
  79:Generated_Source\PSoC6/cyfitter_amux.c **** CY_CFG_UNUSED
  80:Generated_Source\PSoC6/cyfitter_amux.c **** static void CYCONFIGCPYCODE(void *dest, const void *src, size_t n);
  81:Generated_Source\PSoC6/cyfitter_amux.c **** CY_CFG_UNUSED
  82:Generated_Source\PSoC6/cyfitter_amux.c **** static void CYCONFIGCPYCODE(void *dest, const void *src, size_t n)
  83:Generated_Source\PSoC6/cyfitter_amux.c **** {
  84:Generated_Source\PSoC6/cyfitter_amux.c **** 	(void)memcpy(dest, src, n);
  85:Generated_Source\PSoC6/cyfitter_amux.c **** }
  86:Generated_Source\PSoC6/cyfitter_amux.c **** 
  87:Generated_Source\PSoC6/cyfitter_amux.c **** 
ARM GAS  C:\Users\43479\AppData\Local\Temp\ccnK1GAg.s 			page 3


  88:Generated_Source\PSoC6/cyfitter_amux.c **** #define CY_AMUX_UNUSED CYREG_CPUSS_CM0_STATUS
  89:Generated_Source\PSoC6/cyfitter_amux.c **** /*******************************************************************************
  90:Generated_Source\PSoC6/cyfitter_amux.c **** * Function Name: AMux_2_Set
  91:Generated_Source\PSoC6/cyfitter_amux.c **** ********************************************************************************
  92:Generated_Source\PSoC6/cyfitter_amux.c **** * Summary:
  93:Generated_Source\PSoC6/cyfitter_amux.c **** *  This function is used to set a particular channel as active on the AMux.
  94:Generated_Source\PSoC6/cyfitter_amux.c **** *
  95:Generated_Source\PSoC6/cyfitter_amux.c **** * Parameters:  
  96:Generated_Source\PSoC6/cyfitter_amux.c **** *   channel - The mux channel input to set as active
  97:Generated_Source\PSoC6/cyfitter_amux.c **** *
  98:Generated_Source\PSoC6/cyfitter_amux.c **** * Return:
  99:Generated_Source\PSoC6/cyfitter_amux.c **** *   void
 100:Generated_Source\PSoC6/cyfitter_amux.c **** *
 101:Generated_Source\PSoC6/cyfitter_amux.c **** *******************************************************************************/
 102:Generated_Source\PSoC6/cyfitter_amux.c **** void AMux_2_Set(uint8 channel)
 103:Generated_Source\PSoC6/cyfitter_amux.c **** {
  28              		.loc 1 103 0
  29              		.cfi_startproc
  30              		@ args = 0, pretend = 0, frame = 0
  31              		@ frame_needed = 0, uses_anonymous_args = 0
  32              		@ link register save eliminated.
  33              	.LVL0:
 104:Generated_Source\PSoC6/cyfitter_amux.c **** 	switch (channel) {
  34              		.loc 1 104 0
  35 0000 0528     		cmp	r0, #5
  36 0002 20D8     		bhi	.L1
  37 0004 8000     		lsls	r0, r0, #2
  38              	.LVL1:
  39 0006 104B     		ldr	r3, .L10
  40 0008 1B58     		ldr	r3, [r3, r0]
  41 000a 9F46     		mov	pc, r3
  42              		.section	.rodata
  43              		.align	2
  44              	.L4:
  45 0000 0C000000 		.word	.L3
  46 0004 16000000 		.word	.L5
  47 0008 20000000 		.word	.L6
  48 000c 2A000000 		.word	.L7
  49 0010 34000000 		.word	.L8
  50 0014 3E000000 		.word	.L9
  51              		.section	.text.AMux_2_Set
  52              	.L3:
 105:Generated_Source\PSoC6/cyfitter_amux.c **** 		case 0u:
 106:Generated_Source\PSoC6/cyfitter_amux.c **** 			CY_SET_REG32((void CYXDATA *)CYREG_SAR_MUX_SWITCH0, (0x100u));
  53              		.loc 1 106 0
  54 000c 8022     		movs	r2, #128
  55 000e 5200     		lsls	r2, r2, #1
  56 0010 0E4B     		ldr	r3, .L10+4
  57 0012 1A60     		str	r2, [r3]
 107:Generated_Source\PSoC6/cyfitter_amux.c **** 			break;
  58              		.loc 1 107 0
  59 0014 17E0     		b	.L1
  60              	.L5:
 108:Generated_Source\PSoC6/cyfitter_amux.c **** 		case 1u:
 109:Generated_Source\PSoC6/cyfitter_amux.c **** 			CY_SET_REG32((void CYXDATA *)CYREG_SAR_MUX_SWITCH0, (0x200u));
  61              		.loc 1 109 0
  62 0016 8022     		movs	r2, #128
ARM GAS  C:\Users\43479\AppData\Local\Temp\ccnK1GAg.s 			page 4


  63 0018 9200     		lsls	r2, r2, #2
  64 001a 0C4B     		ldr	r3, .L10+4
  65 001c 1A60     		str	r2, [r3]
 110:Generated_Source\PSoC6/cyfitter_amux.c **** 			break;
  66              		.loc 1 110 0
  67 001e 12E0     		b	.L1
  68              	.L6:
 111:Generated_Source\PSoC6/cyfitter_amux.c **** 		case 2u:
 112:Generated_Source\PSoC6/cyfitter_amux.c **** 			CY_SET_REG32((void CYXDATA *)CYREG_SAR_MUX_SWITCH0, (0x400u));
  69              		.loc 1 112 0
  70 0020 8022     		movs	r2, #128
  71 0022 D200     		lsls	r2, r2, #3
  72 0024 094B     		ldr	r3, .L10+4
  73 0026 1A60     		str	r2, [r3]
 113:Generated_Source\PSoC6/cyfitter_amux.c **** 			break;
  74              		.loc 1 113 0
  75 0028 0DE0     		b	.L1
  76              	.L7:
 114:Generated_Source\PSoC6/cyfitter_amux.c **** 		case 3u:
 115:Generated_Source\PSoC6/cyfitter_amux.c **** 			CY_SET_REG32((void CYXDATA *)CYREG_SAR_MUX_SWITCH0, (0x800u));
  77              		.loc 1 115 0
  78 002a 8022     		movs	r2, #128
  79 002c 1201     		lsls	r2, r2, #4
  80 002e 074B     		ldr	r3, .L10+4
  81 0030 1A60     		str	r2, [r3]
 116:Generated_Source\PSoC6/cyfitter_amux.c **** 			break;
  82              		.loc 1 116 0
  83 0032 08E0     		b	.L1
  84              	.L8:
 117:Generated_Source\PSoC6/cyfitter_amux.c **** 		case 4u:
 118:Generated_Source\PSoC6/cyfitter_amux.c **** 			CY_SET_REG32((void CYXDATA *)CYREG_SAR_MUX_SWITCH0, (0x1000u));
  85              		.loc 1 118 0
  86 0034 8022     		movs	r2, #128
  87 0036 5201     		lsls	r2, r2, #5
  88 0038 044B     		ldr	r3, .L10+4
  89 003a 1A60     		str	r2, [r3]
 119:Generated_Source\PSoC6/cyfitter_amux.c **** 			break;
  90              		.loc 1 119 0
  91 003c 03E0     		b	.L1
  92              	.L9:
 120:Generated_Source\PSoC6/cyfitter_amux.c **** 		case 5u:
 121:Generated_Source\PSoC6/cyfitter_amux.c **** 			CY_SET_REG32((void CYXDATA *)CYREG_SAR_MUX_SWITCH0, (0x2000u));
  93              		.loc 1 121 0
  94 003e 8022     		movs	r2, #128
  95 0040 9201     		lsls	r2, r2, #6
  96 0042 024B     		ldr	r3, .L10+4
  97 0044 1A60     		str	r2, [r3]
  98              	.L1:
 122:Generated_Source\PSoC6/cyfitter_amux.c **** 			break;
 123:Generated_Source\PSoC6/cyfitter_amux.c **** 		default:
 124:Generated_Source\PSoC6/cyfitter_amux.c **** 			break;
 125:Generated_Source\PSoC6/cyfitter_amux.c **** 	}
 126:Generated_Source\PSoC6/cyfitter_amux.c **** }
  99              		.loc 1 126 0
 100              		@ sp needed
 101 0046 7047     		bx	lr
 102              	.L11:
ARM GAS  C:\Users\43479\AppData\Local\Temp\ccnK1GAg.s 			page 5


 103              		.align	2
 104              	.L10:
 105 0048 00000000 		.word	.L4
 106 004c 00031D41 		.word	1092420352
 107              		.cfi_endproc
 108              	.LFE39:
 109              		.size	AMux_2_Set, .-AMux_2_Set
 110              		.section	.text.AMux_2_Unset,"ax",%progbits
 111              		.align	2
 112              		.global	AMux_2_Unset
 113              		.code	16
 114              		.thumb_func
 115              		.type	AMux_2_Unset, %function
 116              	AMux_2_Unset:
 117              	.LFB40:
 127:Generated_Source\PSoC6/cyfitter_amux.c **** 
 128:Generated_Source\PSoC6/cyfitter_amux.c **** /*******************************************************************************
 129:Generated_Source\PSoC6/cyfitter_amux.c **** * Function Name: AMux_2_Unset
 130:Generated_Source\PSoC6/cyfitter_amux.c **** ********************************************************************************
 131:Generated_Source\PSoC6/cyfitter_amux.c **** * Summary:
 132:Generated_Source\PSoC6/cyfitter_amux.c **** *  This function is used to clear a particular channel from being active on the
 133:Generated_Source\PSoC6/cyfitter_amux.c **** *  AMux.
 134:Generated_Source\PSoC6/cyfitter_amux.c **** *
 135:Generated_Source\PSoC6/cyfitter_amux.c **** * Parameters:  
 136:Generated_Source\PSoC6/cyfitter_amux.c **** *   channel - The mux channel input to mark inactive
 137:Generated_Source\PSoC6/cyfitter_amux.c **** *
 138:Generated_Source\PSoC6/cyfitter_amux.c **** * Return:
 139:Generated_Source\PSoC6/cyfitter_amux.c **** *   void
 140:Generated_Source\PSoC6/cyfitter_amux.c **** *
 141:Generated_Source\PSoC6/cyfitter_amux.c **** *******************************************************************************/
 142:Generated_Source\PSoC6/cyfitter_amux.c **** void AMux_2_Unset(uint8 channel)
 143:Generated_Source\PSoC6/cyfitter_amux.c **** {
 118              		.loc 1 143 0
 119              		.cfi_startproc
 120              		@ args = 0, pretend = 0, frame = 0
 121              		@ frame_needed = 0, uses_anonymous_args = 0
 122              		@ link register save eliminated.
 123              	.LVL2:
 144:Generated_Source\PSoC6/cyfitter_amux.c **** 	switch (channel) {
 124              		.loc 1 144 0
 125 0000 0528     		cmp	r0, #5
 126 0002 20D8     		bhi	.L12
 127 0004 8000     		lsls	r0, r0, #2
 128              	.LVL3:
 129 0006 104B     		ldr	r3, .L21
 130 0008 1B58     		ldr	r3, [r3, r0]
 131 000a 9F46     		mov	pc, r3
 132              		.section	.rodata
 133              		.align	2
 134              	.L15:
 135 0018 0C000000 		.word	.L14
 136 001c 16000000 		.word	.L16
 137 0020 20000000 		.word	.L17
 138 0024 2A000000 		.word	.L18
 139 0028 34000000 		.word	.L19
 140 002c 3E000000 		.word	.L20
 141              		.section	.text.AMux_2_Unset
ARM GAS  C:\Users\43479\AppData\Local\Temp\ccnK1GAg.s 			page 6


 142              	.L14:
 145:Generated_Source\PSoC6/cyfitter_amux.c **** 		case 0u:
 146:Generated_Source\PSoC6/cyfitter_amux.c **** 			CY_SET_REG32((void CYXDATA *)CYREG_SAR_MUX_SWITCH_CLEAR0, (0x100u));
 143              		.loc 1 146 0
 144 000c 8022     		movs	r2, #128
 145 000e 5200     		lsls	r2, r2, #1
 146 0010 0E4B     		ldr	r3, .L21+4
 147 0012 1A60     		str	r2, [r3]
 147:Generated_Source\PSoC6/cyfitter_amux.c **** 			break;
 148              		.loc 1 147 0
 149 0014 17E0     		b	.L12
 150              	.L16:
 148:Generated_Source\PSoC6/cyfitter_amux.c **** 		case 1u:
 149:Generated_Source\PSoC6/cyfitter_amux.c **** 			CY_SET_REG32((void CYXDATA *)CYREG_SAR_MUX_SWITCH_CLEAR0, (0x200u));
 151              		.loc 1 149 0
 152 0016 8022     		movs	r2, #128
 153 0018 9200     		lsls	r2, r2, #2
 154 001a 0C4B     		ldr	r3, .L21+4
 155 001c 1A60     		str	r2, [r3]
 150:Generated_Source\PSoC6/cyfitter_amux.c **** 			break;
 156              		.loc 1 150 0
 157 001e 12E0     		b	.L12
 158              	.L17:
 151:Generated_Source\PSoC6/cyfitter_amux.c **** 		case 2u:
 152:Generated_Source\PSoC6/cyfitter_amux.c **** 			CY_SET_REG32((void CYXDATA *)CYREG_SAR_MUX_SWITCH_CLEAR0, (0x400u));
 159              		.loc 1 152 0
 160 0020 8022     		movs	r2, #128
 161 0022 D200     		lsls	r2, r2, #3
 162 0024 094B     		ldr	r3, .L21+4
 163 0026 1A60     		str	r2, [r3]
 153:Generated_Source\PSoC6/cyfitter_amux.c **** 			break;
 164              		.loc 1 153 0
 165 0028 0DE0     		b	.L12
 166              	.L18:
 154:Generated_Source\PSoC6/cyfitter_amux.c **** 		case 3u:
 155:Generated_Source\PSoC6/cyfitter_amux.c **** 			CY_SET_REG32((void CYXDATA *)CYREG_SAR_MUX_SWITCH_CLEAR0, (0x800u));
 167              		.loc 1 155 0
 168 002a 8022     		movs	r2, #128
 169 002c 1201     		lsls	r2, r2, #4
 170 002e 074B     		ldr	r3, .L21+4
 171 0030 1A60     		str	r2, [r3]
 156:Generated_Source\PSoC6/cyfitter_amux.c **** 			break;
 172              		.loc 1 156 0
 173 0032 08E0     		b	.L12
 174              	.L19:
 157:Generated_Source\PSoC6/cyfitter_amux.c **** 		case 4u:
 158:Generated_Source\PSoC6/cyfitter_amux.c **** 			CY_SET_REG32((void CYXDATA *)CYREG_SAR_MUX_SWITCH_CLEAR0, (0x1000u));
 175              		.loc 1 158 0
 176 0034 8022     		movs	r2, #128
 177 0036 5201     		lsls	r2, r2, #5
 178 0038 044B     		ldr	r3, .L21+4
 179 003a 1A60     		str	r2, [r3]
 159:Generated_Source\PSoC6/cyfitter_amux.c **** 			break;
 180              		.loc 1 159 0
 181 003c 03E0     		b	.L12
 182              	.L20:
 160:Generated_Source\PSoC6/cyfitter_amux.c **** 		case 5u:
ARM GAS  C:\Users\43479\AppData\Local\Temp\ccnK1GAg.s 			page 7


 161:Generated_Source\PSoC6/cyfitter_amux.c **** 			CY_SET_REG32((void CYXDATA *)CYREG_SAR_MUX_SWITCH_CLEAR0, (0x2000u));
 183              		.loc 1 161 0
 184 003e 8022     		movs	r2, #128
 185 0040 9201     		lsls	r2, r2, #6
 186 0042 024B     		ldr	r3, .L21+4
 187 0044 1A60     		str	r2, [r3]
 188              	.L12:
 162:Generated_Source\PSoC6/cyfitter_amux.c **** 			break;
 163:Generated_Source\PSoC6/cyfitter_amux.c **** 		default:
 164:Generated_Source\PSoC6/cyfitter_amux.c **** 			break;
 165:Generated_Source\PSoC6/cyfitter_amux.c **** 	}
 166:Generated_Source\PSoC6/cyfitter_amux.c **** }
 189              		.loc 1 166 0
 190              		@ sp needed
 191 0046 7047     		bx	lr
 192              	.L22:
 193              		.align	2
 194              	.L21:
 195 0048 18000000 		.word	.L15
 196 004c 04031D41 		.word	1092420356
 197              		.cfi_endproc
 198              	.LFE40:
 199              		.size	AMux_2_Unset, .-AMux_2_Unset
 200              		.section	.text.AMux_1_Set,"ax",%progbits
 201              		.align	2
 202              		.global	AMux_1_Set
 203              		.code	16
 204              		.thumb_func
 205              		.type	AMux_1_Set, %function
 206              	AMux_1_Set:
 207              	.LFB41:
 167:Generated_Source\PSoC6/cyfitter_amux.c **** 
 168:Generated_Source\PSoC6/cyfitter_amux.c **** /*******************************************************************************
 169:Generated_Source\PSoC6/cyfitter_amux.c **** * Function Name: AMux_1_Set
 170:Generated_Source\PSoC6/cyfitter_amux.c **** ********************************************************************************
 171:Generated_Source\PSoC6/cyfitter_amux.c **** * Summary:
 172:Generated_Source\PSoC6/cyfitter_amux.c **** *  This function is used to set a particular channel as active on the AMux.
 173:Generated_Source\PSoC6/cyfitter_amux.c **** *
 174:Generated_Source\PSoC6/cyfitter_amux.c **** * Parameters:  
 175:Generated_Source\PSoC6/cyfitter_amux.c **** *   channel - The mux channel input to set as active
 176:Generated_Source\PSoC6/cyfitter_amux.c **** *
 177:Generated_Source\PSoC6/cyfitter_amux.c **** * Return:
 178:Generated_Source\PSoC6/cyfitter_amux.c **** *   void
 179:Generated_Source\PSoC6/cyfitter_amux.c **** *
 180:Generated_Source\PSoC6/cyfitter_amux.c **** *******************************************************************************/
 181:Generated_Source\PSoC6/cyfitter_amux.c **** void AMux_1_Set(uint8 channel)
 182:Generated_Source\PSoC6/cyfitter_amux.c **** {
 208              		.loc 1 182 0
 209              		.cfi_startproc
 210              		@ args = 0, pretend = 0, frame = 0
 211              		@ frame_needed = 0, uses_anonymous_args = 0
 212              		@ link register save eliminated.
 213              	.LVL4:
 183:Generated_Source\PSoC6/cyfitter_amux.c **** 	switch (channel) {
 214              		.loc 1 183 0
 215 0000 0528     		cmp	r0, #5
 216 0002 2AD8     		bhi	.L23
ARM GAS  C:\Users\43479\AppData\Local\Temp\ccnK1GAg.s 			page 8


 217 0004 8000     		lsls	r0, r0, #2
 218              	.LVL5:
 219 0006 154B     		ldr	r3, .L32
 220 0008 1B58     		ldr	r3, [r3, r0]
 221 000a 9F46     		mov	pc, r3
 222              		.section	.rodata
 223              		.align	2
 224              	.L26:
 225 0030 0C000000 		.word	.L25
 226 0034 18000000 		.word	.L27
 227 0038 26000000 		.word	.L28
 228 003c 34000000 		.word	.L29
 229 0040 42000000 		.word	.L30
 230 0044 4E000000 		.word	.L31
 231              		.section	.text.AMux_1_Set
 232              	.L25:
 184:Generated_Source\PSoC6/cyfitter_amux.c **** 		case 0u:
 185:Generated_Source\PSoC6/cyfitter_amux.c **** 			CY_SET_REG32((void CYXDATA *)CYREG_HSIOM_PRT9_PORT_SEL0, (CY_GET_REG32((void CYXDATA *)CYREG_HSI
 233              		.loc 1 185 0
 234 000c 144A     		ldr	r2, .L32+4
 235 000e 1168     		ldr	r1, [r2]
 236 0010 0523     		movs	r3, #5
 237 0012 0B43     		orrs	r3, r1
 238 0014 1360     		str	r3, [r2]
 186:Generated_Source\PSoC6/cyfitter_amux.c **** 			break;
 239              		.loc 1 186 0
 240 0016 20E0     		b	.L23
 241              	.L27:
 187:Generated_Source\PSoC6/cyfitter_amux.c **** 		case 1u:
 188:Generated_Source\PSoC6/cyfitter_amux.c **** 			CY_SET_REG32((void CYXDATA *)CYREG_HSIOM_PRT9_PORT_SEL0, (CY_GET_REG32((void CYXDATA *)CYREG_HSI
 242              		.loc 1 188 0
 243 0018 114A     		ldr	r2, .L32+4
 244 001a 1368     		ldr	r3, [r2]
 245 001c A021     		movs	r1, #160
 246 001e C900     		lsls	r1, r1, #3
 247 0020 0B43     		orrs	r3, r1
 248 0022 1360     		str	r3, [r2]
 189:Generated_Source\PSoC6/cyfitter_amux.c **** 			break;
 249              		.loc 1 189 0
 250 0024 19E0     		b	.L23
 251              	.L28:
 190:Generated_Source\PSoC6/cyfitter_amux.c **** 		case 2u:
 191:Generated_Source\PSoC6/cyfitter_amux.c **** 			CY_SET_REG32((void CYXDATA *)CYREG_HSIOM_PRT9_PORT_SEL0, (CY_GET_REG32((void CYXDATA *)CYREG_HSI
 252              		.loc 1 191 0
 253 0026 0E4A     		ldr	r2, .L32+4
 254 0028 1368     		ldr	r3, [r2]
 255 002a A021     		movs	r1, #160
 256 002c C902     		lsls	r1, r1, #11
 257 002e 0B43     		orrs	r3, r1
 258 0030 1360     		str	r3, [r2]
 192:Generated_Source\PSoC6/cyfitter_amux.c **** 			break;
 259              		.loc 1 192 0
 260 0032 12E0     		b	.L23
 261              	.L29:
 193:Generated_Source\PSoC6/cyfitter_amux.c **** 		case 3u:
 194:Generated_Source\PSoC6/cyfitter_amux.c **** 			CY_SET_REG32((void CYXDATA *)CYREG_HSIOM_PRT9_PORT_SEL1, (CY_GET_REG32((void CYXDATA *)CYREG_HSI
 262              		.loc 1 194 0
ARM GAS  C:\Users\43479\AppData\Local\Temp\ccnK1GAg.s 			page 9


 263 0034 0B4A     		ldr	r2, .L32+8
 264 0036 1368     		ldr	r3, [r2]
 265 0038 A021     		movs	r1, #160
 266 003a C904     		lsls	r1, r1, #19
 267 003c 0B43     		orrs	r3, r1
 268 003e 1360     		str	r3, [r2]
 195:Generated_Source\PSoC6/cyfitter_amux.c **** 			break;
 269              		.loc 1 195 0
 270 0040 0BE0     		b	.L23
 271              	.L30:
 196:Generated_Source\PSoC6/cyfitter_amux.c **** 		case 4u:
 197:Generated_Source\PSoC6/cyfitter_amux.c **** 			CY_SET_REG32((void CYXDATA *)CYREG_HSIOM_PRT9_PORT_SEL1, (CY_GET_REG32((void CYXDATA *)CYREG_HSI
 272              		.loc 1 197 0
 273 0042 084A     		ldr	r2, .L32+8
 274 0044 1168     		ldr	r1, [r2]
 275 0046 0523     		movs	r3, #5
 276 0048 0B43     		orrs	r3, r1
 277 004a 1360     		str	r3, [r2]
 198:Generated_Source\PSoC6/cyfitter_amux.c **** 			break;
 278              		.loc 1 198 0
 279 004c 05E0     		b	.L23
 280              	.L31:
 199:Generated_Source\PSoC6/cyfitter_amux.c **** 		case 5u:
 200:Generated_Source\PSoC6/cyfitter_amux.c **** 			CY_SET_REG32((void CYXDATA *)CYREG_HSIOM_PRT9_PORT_SEL1, (CY_GET_REG32((void CYXDATA *)CYREG_HSI
 281              		.loc 1 200 0
 282 004e 054A     		ldr	r2, .L32+8
 283 0050 1368     		ldr	r3, [r2]
 284 0052 A021     		movs	r1, #160
 285 0054 C900     		lsls	r1, r1, #3
 286 0056 0B43     		orrs	r3, r1
 287 0058 1360     		str	r3, [r2]
 288              	.L23:
 201:Generated_Source\PSoC6/cyfitter_amux.c **** 			break;
 202:Generated_Source\PSoC6/cyfitter_amux.c **** 		default:
 203:Generated_Source\PSoC6/cyfitter_amux.c **** 			break;
 204:Generated_Source\PSoC6/cyfitter_amux.c **** 	}
 205:Generated_Source\PSoC6/cyfitter_amux.c **** }
 289              		.loc 1 205 0
 290              		@ sp needed
 291 005a 7047     		bx	lr
 292              	.L33:
 293              		.align	2
 294              	.L32:
 295 005c 30000000 		.word	.L26
 296 0060 90003140 		.word	1076953232
 297 0064 94003140 		.word	1076953236
 298              		.cfi_endproc
 299              	.LFE41:
 300              		.size	AMux_1_Set, .-AMux_1_Set
 301              		.section	.text.AMux_1_Unset,"ax",%progbits
 302              		.align	2
 303              		.global	AMux_1_Unset
 304              		.code	16
 305              		.thumb_func
 306              		.type	AMux_1_Unset, %function
 307              	AMux_1_Unset:
 308              	.LFB42:
ARM GAS  C:\Users\43479\AppData\Local\Temp\ccnK1GAg.s 			page 10


 206:Generated_Source\PSoC6/cyfitter_amux.c **** 
 207:Generated_Source\PSoC6/cyfitter_amux.c **** /*******************************************************************************
 208:Generated_Source\PSoC6/cyfitter_amux.c **** * Function Name: AMux_1_Unset
 209:Generated_Source\PSoC6/cyfitter_amux.c **** ********************************************************************************
 210:Generated_Source\PSoC6/cyfitter_amux.c **** * Summary:
 211:Generated_Source\PSoC6/cyfitter_amux.c **** *  This function is used to clear a particular channel from being active on the
 212:Generated_Source\PSoC6/cyfitter_amux.c **** *  AMux.
 213:Generated_Source\PSoC6/cyfitter_amux.c **** *
 214:Generated_Source\PSoC6/cyfitter_amux.c **** * Parameters:  
 215:Generated_Source\PSoC6/cyfitter_amux.c **** *   channel - The mux channel input to mark inactive
 216:Generated_Source\PSoC6/cyfitter_amux.c **** *
 217:Generated_Source\PSoC6/cyfitter_amux.c **** * Return:
 218:Generated_Source\PSoC6/cyfitter_amux.c **** *   void
 219:Generated_Source\PSoC6/cyfitter_amux.c **** *
 220:Generated_Source\PSoC6/cyfitter_amux.c **** *******************************************************************************/
 221:Generated_Source\PSoC6/cyfitter_amux.c **** void AMux_1_Unset(uint8 channel)
 222:Generated_Source\PSoC6/cyfitter_amux.c **** {
 309              		.loc 1 222 0
 310              		.cfi_startproc
 311              		@ args = 0, pretend = 0, frame = 0
 312              		@ frame_needed = 0, uses_anonymous_args = 0
 313              		@ link register save eliminated.
 314              	.LVL6:
 223:Generated_Source\PSoC6/cyfitter_amux.c **** 	switch (channel) {
 315              		.loc 1 223 0
 316 0000 0528     		cmp	r0, #5
 317 0002 26D8     		bhi	.L34
 318 0004 8000     		lsls	r0, r0, #2
 319              	.LVL7:
 320 0006 134B     		ldr	r3, .L43
 321 0008 1B58     		ldr	r3, [r3, r0]
 322 000a 9F46     		mov	pc, r3
 323              		.section	.rodata
 324              		.align	2
 325              	.L37:
 326 0048 0C000000 		.word	.L36
 327 004c 18000000 		.word	.L38
 328 0050 24000000 		.word	.L39
 329 0054 30000000 		.word	.L40
 330 0058 3C000000 		.word	.L41
 331 005c 48000000 		.word	.L42
 332              		.section	.text.AMux_1_Unset
 333              	.L36:
 224:Generated_Source\PSoC6/cyfitter_amux.c **** 		case 0u:
 225:Generated_Source\PSoC6/cyfitter_amux.c **** 			CY_SET_REG32((void CYXDATA *)CYREG_HSIOM_PRT9_PORT_SEL0, (CY_GET_REG32((void CYXDATA *)CYREG_HSI
 334              		.loc 1 225 0
 335 000c 124A     		ldr	r2, .L43+4
 336 000e 1368     		ldr	r3, [r2]
 337 0010 0521     		movs	r1, #5
 338 0012 8B43     		bics	r3, r1
 339 0014 1360     		str	r3, [r2]
 226:Generated_Source\PSoC6/cyfitter_amux.c **** 			break;
 340              		.loc 1 226 0
 341 0016 1CE0     		b	.L34
 342              	.L38:
 227:Generated_Source\PSoC6/cyfitter_amux.c **** 		case 1u:
 228:Generated_Source\PSoC6/cyfitter_amux.c **** 			CY_SET_REG32((void CYXDATA *)CYREG_HSIOM_PRT9_PORT_SEL0, (CY_GET_REG32((void CYXDATA *)CYREG_HSI
ARM GAS  C:\Users\43479\AppData\Local\Temp\ccnK1GAg.s 			page 11


 343              		.loc 1 228 0
 344 0018 0F4A     		ldr	r2, .L43+4
 345 001a 1168     		ldr	r1, [r2]
 346 001c 0F4B     		ldr	r3, .L43+8
 347 001e 0B40     		ands	r3, r1
 348 0020 1360     		str	r3, [r2]
 229:Generated_Source\PSoC6/cyfitter_amux.c **** 			break;
 349              		.loc 1 229 0
 350 0022 16E0     		b	.L34
 351              	.L39:
 230:Generated_Source\PSoC6/cyfitter_amux.c **** 		case 2u:
 231:Generated_Source\PSoC6/cyfitter_amux.c **** 			CY_SET_REG32((void CYXDATA *)CYREG_HSIOM_PRT9_PORT_SEL0, (CY_GET_REG32((void CYXDATA *)CYREG_HSI
 352              		.loc 1 231 0
 353 0024 0C4A     		ldr	r2, .L43+4
 354 0026 1168     		ldr	r1, [r2]
 355 0028 0D4B     		ldr	r3, .L43+12
 356 002a 0B40     		ands	r3, r1
 357 002c 1360     		str	r3, [r2]
 232:Generated_Source\PSoC6/cyfitter_amux.c **** 			break;
 358              		.loc 1 232 0
 359 002e 10E0     		b	.L34
 360              	.L40:
 233:Generated_Source\PSoC6/cyfitter_amux.c **** 		case 3u:
 234:Generated_Source\PSoC6/cyfitter_amux.c **** 			CY_SET_REG32((void CYXDATA *)CYREG_HSIOM_PRT9_PORT_SEL1, (CY_GET_REG32((void CYXDATA *)CYREG_HSI
 361              		.loc 1 234 0
 362 0030 0C4A     		ldr	r2, .L43+16
 363 0032 1168     		ldr	r1, [r2]
 364 0034 0C4B     		ldr	r3, .L43+20
 365 0036 0B40     		ands	r3, r1
 366 0038 1360     		str	r3, [r2]
 235:Generated_Source\PSoC6/cyfitter_amux.c **** 			break;
 367              		.loc 1 235 0
 368 003a 0AE0     		b	.L34
 369              	.L41:
 236:Generated_Source\PSoC6/cyfitter_amux.c **** 		case 4u:
 237:Generated_Source\PSoC6/cyfitter_amux.c **** 			CY_SET_REG32((void CYXDATA *)CYREG_HSIOM_PRT9_PORT_SEL1, (CY_GET_REG32((void CYXDATA *)CYREG_HSI
 370              		.loc 1 237 0
 371 003c 094A     		ldr	r2, .L43+16
 372 003e 1368     		ldr	r3, [r2]
 373 0040 0521     		movs	r1, #5
 374 0042 8B43     		bics	r3, r1
 375 0044 1360     		str	r3, [r2]
 238:Generated_Source\PSoC6/cyfitter_amux.c **** 			break;
 376              		.loc 1 238 0
 377 0046 04E0     		b	.L34
 378              	.L42:
 239:Generated_Source\PSoC6/cyfitter_amux.c **** 		case 5u:
 240:Generated_Source\PSoC6/cyfitter_amux.c **** 			CY_SET_REG32((void CYXDATA *)CYREG_HSIOM_PRT9_PORT_SEL1, (CY_GET_REG32((void CYXDATA *)CYREG_HSI
 379              		.loc 1 240 0
 380 0048 064A     		ldr	r2, .L43+16
 381 004a 1168     		ldr	r1, [r2]
 382 004c 034B     		ldr	r3, .L43+8
 383 004e 0B40     		ands	r3, r1
 384 0050 1360     		str	r3, [r2]
 385              	.L34:
 241:Generated_Source\PSoC6/cyfitter_amux.c **** 			break;
 242:Generated_Source\PSoC6/cyfitter_amux.c **** 		default:
ARM GAS  C:\Users\43479\AppData\Local\Temp\ccnK1GAg.s 			page 12


 243:Generated_Source\PSoC6/cyfitter_amux.c **** 			break;
 244:Generated_Source\PSoC6/cyfitter_amux.c **** 	}
 245:Generated_Source\PSoC6/cyfitter_amux.c **** }
 386              		.loc 1 245 0
 387              		@ sp needed
 388 0052 7047     		bx	lr
 389              	.L44:
 390              		.align	2
 391              	.L43:
 392 0054 48000000 		.word	.L37
 393 0058 90003140 		.word	1076953232
 394 005c FFFAFFFF 		.word	-1281
 395 0060 FFFFFAFF 		.word	-327681
 396 0064 94003140 		.word	1076953236
 397 0068 FFFFFFFA 		.word	-83886081
 398              		.cfi_endproc
 399              	.LFE42:
 400              		.size	AMux_1_Unset, .-AMux_1_Unset
 401              		.text
 402              	.Letext0:
 403              		.file 2 "d:\\mysoftware\\cypress\\psoc creator\\4.4\\psoc creator\\import\\gnu\\arm\\5.4.1\\arm-no
 404              		.file 3 "d:\\mysoftware\\cypress\\psoc creator\\4.4\\psoc creator\\import\\gnu\\arm\\5.4.1\\arm-no
 405              		.file 4 "Generated_Source\\PSoC6\\pdl\\drivers/peripheral/syslib/cy_syslib.h"